
CH32V003-DEV-KIT.elf:     file format elf32-littleriscv
CH32V003-DEV-KIT.elf
architecture: riscv:rv32, flags 0x00000112:
EXEC_P, HAS_SYMS, D_PAGED
start address 0x00000000

Program Header:
    LOAD off    0x00001000 vaddr 0x00000000 paddr 0x00000000 align 2**12
         filesz 0x00002758 memsz 0x00002758 flags r-x
    LOAD off    0x00004000 vaddr 0x20000000 paddr 0x00002758 align 2**12
         filesz 0x00000038 memsz 0x00000158 flags rw-
    LOAD off    0x00004700 vaddr 0x20000700 paddr 0x20000700 align 2**12
         filesz 0x00000000 memsz 0x00000100 flags rw-

Sections:
Idx Name          Size      VMA       LMA       File off  Algn
  0 .init         000000a0  00000000  00000000  00001000  2**2
                  CONTENTS, ALLOC, LOAD, READONLY, CODE
  1 .text         000026b8  000000a0  000000a0  000010a0  2**2
                  CONTENTS, ALLOC, LOAD, READONLY, CODE
  2 .fini         00000000  00002758  00002758  00004038  2**0
                  CONTENTS, ALLOC, LOAD, CODE
  3 .dalign       00000000  20000000  20000000  00004038  2**0
                  CONTENTS
  4 .dlalign      00000000  00002758  00002758  00004038  2**0
                  CONTENTS
  5 .data         00000038  20000000  00002758  00004000  2**2
                  CONTENTS, ALLOC, LOAD, DATA
  6 .bss          00000120  20000038  00002790  00004038  2**2
                  ALLOC
  7 .stack        00000100  20000700  20000700  00004700  2**0
                  ALLOC
  8 .debug_info   000124fd  00000000  00000000  00004038  2**0
                  CONTENTS, READONLY, DEBUGGING
  9 .debug_abbrev 00002dfe  00000000  00000000  00016535  2**0
                  CONTENTS, READONLY, DEBUGGING
 10 .debug_loc    000049e3  00000000  00000000  00019333  2**0
                  CONTENTS, READONLY, DEBUGGING
 11 .debug_aranges 00000a40  00000000  00000000  0001dd18  2**3
                  CONTENTS, READONLY, DEBUGGING
 12 .debug_ranges 000009d8  00000000  00000000  0001e758  2**3
                  CONTENTS, READONLY, DEBUGGING
 13 .debug_line   0000cdf8  00000000  00000000  0001f130  2**0
                  CONTENTS, READONLY, DEBUGGING
 14 .debug_str    00003156  00000000  00000000  0002bf28  2**0
                  CONTENTS, READONLY, DEBUGGING
 15 .comment      00000033  00000000  00000000  0002f07e  2**0
                  CONTENTS, READONLY
 16 .debug_frame  000016bc  00000000  00000000  0002f0b4  2**2
                  CONTENTS, READONLY, DEBUGGING
SYMBOL TABLE:
00000000 l    d  .init	00000000 .init
000000a0 l    d  .text	00000000 .text
00002758 l    d  .fini	00000000 .fini
20000000 l    d  .dalign	00000000 .dalign
00002758 l    d  .dlalign	00000000 .dlalign
20000000 l    d  .data	00000000 .data
20000038 l    d  .bss	00000000 .bss
20000700 l    d  .stack	00000000 .stack
00000000 l    d  .debug_info	00000000 .debug_info
00000000 l    d  .debug_abbrev	00000000 .debug_abbrev
00000000 l    d  .debug_loc	00000000 .debug_loc
00000000 l    d  .debug_aranges	00000000 .debug_aranges
00000000 l    d  .debug_ranges	00000000 .debug_ranges
00000000 l    d  .debug_line	00000000 .debug_line
00000000 l    d  .debug_str	00000000 .debug_str
00000000 l    d  .comment	00000000 .comment
00000000 l    d  .debug_frame	00000000 .debug_frame
00000000 l    df *ABS*	00000000 96OLEDI2C.c
00000000 l    df *ABS*	00000000 AHT20.c
00000000 l    df *ABS*	00000000 SerialPort.c
00000000 l    df *ABS*	00000000 ch32v00x_it.c
00000000 l    df *ABS*	00000000 main.c
00000000 l    df *ABS*	00000000 system_ch32v00x.c
00000000 l    df *ABS*	00000000 ch32v00x_adc.c
00000000 l    df *ABS*	00000000 ch32v00x_exti.c
00000000 l    df *ABS*	00000000 ch32v00x_gpio.c
00000000 l    df *ABS*	00000000 ch32v00x_i2c.c
00000000 l    df *ABS*	00000000 ch32v00x_misc.c
00000000 l    df *ABS*	00000000 ch32v00x_rcc.c
20000014 l     O .data	00000014 ADCPrescTable
20000028 l     O .data	00000010 APBAHBPrescTable
00000000 l    df *ABS*	00000000 ch32v00x_tim.c
00000000 l    df *ABS*	00000000 ch32v00x_usart.c
00000000 l    df *ABS*	00000000 debug.c
20000154 l     O .bss	00000002 p_ms
20000156 l     O .bss	00000001 p_us
00000000 l    df *ABS*	00000000 strlen.c
00000a04 g     F .text	0000005a UARTSendString
000020b2 g     F .text	00000004 TIM_SetCompare2
00000e52 g     F .text	00000096 GPIOConfig
20000838 g       .data	00000000 __global_pointer$
00001724  w      .text	00000000 TIM1_CC_IRQHandler
00001c58 g     F .text	00000008 I2C_ReceiveData
00000ada g     F .text	00000002 HardFault_Handler
00002074 g     F .text	0000000e TIM_OC1PreloadConfig
000016f6  w      .text	00000000 SysTick_Handler
00001858 g     F .text	0000000a ADC_StartCalibration
00001cc0 g     F .text	000000a6 NVIC_Init
000016fc  w      .text	00000000 PVD_IRQHandler
00001940 g     F .text	0000001c ADC_GetITStatus
00000ad6 g     F .text	00000004 NMI_Handler
000022ac g     O .text	000002a7 AARR_GlcdFont_U8
000021e4 g     F .text	0000000a USART_GetFlagStatus
20000038 g       .bss	00000000 _sbss
00000100 g       *ABS*	00000000 __stack_size
000000aa g     F .text	0000000a .hidden __riscv_restore_2
00002044 g     F .text	00000016 TIM_CtrlPWMOutputs
000004b8 g     F .text	000000ee OLEDI2CWriteMuiltiByte
20000148 g     O .bss	00000004 adcReading
00001820 g     F .text	00000010 ADC_Cmd
00000a9c g     F .text	0000003a UARTSendBuffer
0000202c g     F .text	00000018 TIM_Cmd
00002098 g     F .text	00000016 TIM_OC4PreloadConfig
20000010 g     O .data	00000004 SystemCoreClock
0000195c g     F .text	0000000a ADC_ClearITPendingBit
000021dc g     F .text	00000008 USART_ReceiveData
000000d4 g     F .text	0000002c .hidden __udivsi3
000001f2 g     F .text	000000ce OLEDI2CCMD
000000a0 g       .init	00000000 _einit
00001e16 g     F .text	0000001e RCC_APB2PeriphClockCmd
00001a0c g     F .text	000000d6 GPIO_Init
00001d66 g     F .text	00000014 RCC_ADCCLKConfig
000010e2 g     F .text	0000003a DigitSeperation
20000150 g     O .bss	00000004 NVIC_Priority_Group
0000171c  w      .text	00000000 SPI1_IRQHandler
00001846 g     F .text	0000000a ADC_ResetCalibration
00002188 g     F .text	00000016 USART_Cmd
0000036c g     F .text	00000114 OLEDI2CPutChar
000000a0 g     F .text	0000000a .hidden __riscv_save_1
00001966 g     F .text	00000014 ADC_Calibration_Vol
000000aa g     F .text	0000000a .hidden __riscv_restore_0
00001704  w      .text	00000000 AWU_IRQHandler
0000111c g     F .text	0000002c EXTI7_0_IRQHandler
00001896 g     F .text	0000007a ADC_InjectedChannelConfig
00000cde g     F .text	00000074 Beep
00001e34 g     F .text	0000001e RCC_APB1PeriphClockCmd
20000700 g       .stack	00000000 _heap_end
00000c78 g     F .text	00000066 BlinkLED
0000170c  w      .text	00000000 DMA1_Channel4_IRQHandler
2000013d g     O .bss	00000001 Rxfinish1
00000a5e g     F .text	0000003e UARTDebugPrint
00001c54 g     F .text	00000004 I2C_SendData
0000153e g     F .text	0000003a ADC1_IRQHandler
20000140 g     O .bss	00000004 T
00001b0c g     F .text	000000e2 I2C_Init
00001a02 g     F .text	0000000a EXTI_ClearITPendingBit
00001862 g     F .text	00000008 ADC_GetCalibrationStatus
20000158 g       .bss	00000000 _ebss
000021ee g     F .text	0000003c USART_GetITStatus
00001712  w      .text	00000000 DMA1_Channel7_IRQHandler
00001ebe g     F .text	0000006a TIM_OC1Init
00001850 g     F .text	00000008 ADC_GetResetCalibrationStatus
0000222a g     F .text	00000034 Delay_Init
00001ae2 g     F .text	00000004 GPIO_SetBits
0000205a g     F .text	0000001a TIM_ARRPreloadConfig
0000187e g     F .text	00000018 ADC_SoftwareStartInjectedConvCmd
00000100 g     F .text	00000008 .hidden __umodsi3
00001c06 g     F .text	0000001a I2C_GenerateSTART
00001716  w      .text	00000000 I2C1_EV_IRQHandler
00000480 g     F .text	00000038 OLEDI2CPutStr
00001d7a g     F .text	0000009c RCC_GetClocksFreq
00001710  w      .text	00000000 DMA1_Channel6_IRQHandler
000020ba g     F .text	000000ce USART_Init
00001700  w      .text	00000000 RCC_IRQHandler
00001722  w      .text	00000000 TIM1_TRG_COM_IRQHandler
00001706  w      .text	00000000 DMA1_Channel1_IRQHandler
00000000 g       .init	00000000 _start
20000000 g     O .data	00000010 AHBPrescTable
00001c88 g     F .text	00000032 I2C_GetFlagStatus
00002082 g     F .text	00000016 TIM_OC2PreloadConfig
000005a6 g     F .text	00000062 OLEDI2CFillScreen
00001f28 g     F .text	00000096 TIM_OC2Init
0000219e g     F .text	00000036 USART_ITConfig
0000197a g     F .text	0000006a EXTI_Init
000000b4 g     F .text	00000014 .hidden __mulsi3
0000034e g     F .text	0000001e OLEDI2CSetCol
00001bee g     F .text	00000018 I2C_Cmd
00001ae6 g     F .text	00000004 GPIO_ResetBits
000006e6 g     F .text	000000f0 AHT20FInit
00001012 g     F .text	000000d0 I2CReadBytes
20000000 g       .dalign	00000000 _data_vma
2000013c g     O .bss	00000001 RxCnt1
00001fbe g     F .text	0000006e TIM_OC4Init
00001aea g     F .text	00000022 GPIO_EXTILineConfig
00001c60 g     F .text	00000012 I2C_Send7bitAddress
00000608 g     F .text	00000032 OLEDI2CPattern
000007d6 g     F .text	000000f2 AHT20Measure
000019e4 g     F .text	0000001e EXTI_GetITStatus
000002c0 g     F .text	0000007a OLEDI2CInit
0000014a g     F .text	000000a8 memset
00001148 g     F .text	000003f6 main
00000f7a g     F .text	00000098 IIC_Init
20000038 g     O .bss	00000004 H
0000170e  w      .text	00000000 DMA1_Channel5_IRQHandler
000000cc g     F .text	00000058 .hidden __divsi3
0000225e g     F .text	0000003a Delay_Ms
000020b6 g     F .text	00000004 TIM_SetCompare4
000015ca g     F .text	000000bc SystemInit
00001910 g     F .text	00000014 ADC_InjectedSequencerLengthConfig
2000014c g     O .bss	00000004 digitSep
00000000 g       .init	00000000 _sinit
0000170a  w      .text	00000000 DMA1_Channel3_IRQHandler
00001830 g     F .text	00000016 ADC_ITConfig
00001720  w      .text	00000000 TIM1_UP_IRQHandler
000016fa  w      .text	00000000 WWDG_IRQHandler
0000063a g     F .text	000000ac AHT20FReset
00000958 g     F .text	000000ac UsartConfig
00001726  w      .text	00000000 TIM2_IRQHandler
20000800 g       .stack	00000000 _eusrstack
000000a0 g     F .text	0000000a .hidden __riscv_save_2
000016f8  w      .text	00000000 SW_Handler
000017ac g     F .text	00000026 ADC_DeInit
0000171e  w      .text	00000000 TIM1_BRK_IRQHandler
0000186a g     F .text	00000014 ADC_ExternalTrigInjectedConvCmd
000017d2 g     F .text	0000004e ADC_Init
000021d4 g     F .text	00000008 USART_SendData
2000013f g     O .bss	00000001 SW3Flag
20000038 g       .data	00000000 _edata
20000158 g       .bss	00000000 _end
00001e70 g     F .text	0000004e TIM_TimeBaseInit
00001924 g     F .text	0000001c ADC_GetInjectedConversionValue
00002758 g       .dlalign	00000000 _data_lma
00000bf2 g     F .text	00000086 SetRGB
0000033a g     F .text	00000014 OLEDI2CSetPage
2000003c g     O .bss	00000100 RxBuffer1
00001686 g     F .text	0000006c SystemCoreClockUpdate
000008c8 g     F .text	00000090 AHT20ReadTH
00000124 g     F .text	00000024 .hidden __modsi3
00001708  w      .text	00000000 DMA1_Channel2_IRQHandler
00001728  w      .text	00000000 handle_reset
000016fe  w      .text	00000000 FLASH_IRQHandler
000000a0 g     F .text	0000000a .hidden __riscv_save_0
00000d52 g     F .text	00000100 ADCConfig
00001578 g     F .text	00000052 USART1_IRQHandler
00001c3a g     F .text	0000001a I2C_AcknowledgeConfig
00000ee8 g     F .text	00000092 KeysConfig
00002298 g     F .text	00000012 strlen
00001c72 g     F .text	00000016 I2C_CheckEvent
00001e52 g     F .text	0000001e RCC_APB2PeriphResetCmd
00001c20 g     F .text	0000001a I2C_GenerateSTOP
00001718  w      .text	00000000 I2C1_ER_IRQHandler
00001cba g     F .text	00000006 NVIC_PriorityGroupConfig
000000aa g     F .text	0000000a .hidden __riscv_restore_1
00000adc g     F .text	00000116 RGB_PWMConfig
2000013e g     O .bss	00000001 SW2Flag
000020ae g     F .text	00000004 TIM_SetCompare1
20000144 g     O .bss	00000001 adcFlag



Disassembly of section .init:

00000000 <_sinit>:
   0:	7280106f          	j	1728 <handle_reset>
   4:	0000                	unimp
   6:	0000                	unimp
   8:	0ad6                	slli	s5,s5,0x15
   a:	0000                	unimp
   c:	0ada                	slli	s5,s5,0x16
	...
  2e:	0000                	unimp
  30:	16f6                	slli	a3,a3,0x3d
  32:	0000                	unimp
  34:	0000                	unimp
  36:	0000                	unimp
  38:	16f8                	addi	a4,sp,876
  3a:	0000                	unimp
  3c:	0000                	unimp
  3e:	0000                	unimp
  40:	16fa                	slli	a3,a3,0x3e
  42:	0000                	unimp
  44:	16fc                	addi	a5,sp,876
  46:	0000                	unimp
  48:	16fe                	slli	a3,a3,0x3f
  4a:	0000                	unimp
  4c:	1700                	addi	s0,sp,928
  4e:	0000                	unimp
  50:	111c                	addi	a5,sp,160
  52:	0000                	unimp
  54:	1704                	addi	s1,sp,928
  56:	0000                	unimp
  58:	1706                	slli	a4,a4,0x21
  5a:	0000                	unimp
  5c:	1708                	addi	a0,sp,928
  5e:	0000                	unimp
  60:	170a                	slli	a4,a4,0x22
  62:	0000                	unimp
  64:	170c                	addi	a1,sp,928
  66:	0000                	unimp
  68:	170e                	slli	a4,a4,0x23
  6a:	0000                	unimp
  6c:	1710                	addi	a2,sp,928
  6e:	0000                	unimp
  70:	1712                	slli	a4,a4,0x24
  72:	0000                	unimp
  74:	153e                	slli	a0,a0,0x2f
  76:	0000                	unimp
  78:	1716                	slli	a4,a4,0x25
  7a:	0000                	unimp
  7c:	1718                	addi	a4,sp,928
  7e:	0000                	unimp
  80:	1578                	addi	a4,sp,684
  82:	0000                	unimp
  84:	171c                	addi	a5,sp,928
  86:	0000                	unimp
  88:	171e                	slli	a4,a4,0x27
  8a:	0000                	unimp
  8c:	1720                	addi	s0,sp,936
  8e:	0000                	unimp
  90:	1722                	slli	a4,a4,0x28
  92:	0000                	unimp
  94:	1724                	addi	s1,sp,936
  96:	0000                	unimp
  98:	1726                	slli	a4,a4,0x29
  9a:	0000                	unimp
  9c:	0000                	unimp
	...

Disassembly of section .text:

000000a0 <__riscv_save_0>:
      a0:	1151                	addi	sp,sp,-12
      a2:	c026                	sw	s1,0(sp)
      a4:	c222                	sw	s0,4(sp)
      a6:	c406                	sw	ra,8(sp)
      a8:	8282                	jr	t0

000000aa <__riscv_restore_0>:
      aa:	4482                	lw	s1,0(sp)
      ac:	4412                	lw	s0,4(sp)
      ae:	40a2                	lw	ra,8(sp)
      b0:	0131                	addi	sp,sp,12
      b2:	8082                	ret

000000b4 <__mulsi3>:
      b4:	862a                	mv	a2,a0
      b6:	4501                	li	a0,0
      b8:	0015f693          	andi	a3,a1,1
      bc:	c291                	beqz	a3,c0 <__mulsi3+0xc>
      be:	9532                	add	a0,a0,a2
      c0:	8185                	srli	a1,a1,0x1
      c2:	0606                	slli	a2,a2,0x1
      c4:	f9f5                	bnez	a1,b8 <__mulsi3+0x4>
      c6:	8082                	ret
      c8:	0000                	unimp
	...

000000cc <__divsi3>:
      cc:	02054e63          	bltz	a0,108 <__umodsi3+0x8>
      d0:	0405c363          	bltz	a1,116 <__umodsi3+0x16>

000000d4 <__udivsi3>:
      d4:	862e                	mv	a2,a1
      d6:	85aa                	mv	a1,a0
      d8:	557d                	li	a0,-1
      da:	c215                	beqz	a2,fe <__udivsi3+0x2a>
      dc:	4685                	li	a3,1
      de:	00b67863          	bgeu	a2,a1,ee <__udivsi3+0x1a>
      e2:	00c05663          	blez	a2,ee <__udivsi3+0x1a>
      e6:	0606                	slli	a2,a2,0x1
      e8:	0686                	slli	a3,a3,0x1
      ea:	feb66ce3          	bltu	a2,a1,e2 <__udivsi3+0xe>
      ee:	4501                	li	a0,0
      f0:	00c5e463          	bltu	a1,a2,f8 <__udivsi3+0x24>
      f4:	8d91                	sub	a1,a1,a2
      f6:	8d55                	or	a0,a0,a3
      f8:	8285                	srli	a3,a3,0x1
      fa:	8205                	srli	a2,a2,0x1
      fc:	faf5                	bnez	a3,f0 <__udivsi3+0x1c>
      fe:	8082                	ret

00000100 <__umodsi3>:
     100:	8286                	mv	t0,ra
     102:	3fc9                	jal	d4 <__udivsi3>
     104:	852e                	mv	a0,a1
     106:	8282                	jr	t0
     108:	40a00533          	neg	a0,a0
     10c:	0005d763          	bgez	a1,11a <__umodsi3+0x1a>
     110:	40b005b3          	neg	a1,a1
     114:	b7c1                	j	d4 <__udivsi3>
     116:	40b005b3          	neg	a1,a1
     11a:	8286                	mv	t0,ra
     11c:	3f65                	jal	d4 <__udivsi3>
     11e:	40a00533          	neg	a0,a0
     122:	8282                	jr	t0

00000124 <__modsi3>:
     124:	8286                	mv	t0,ra
     126:	0005c763          	bltz	a1,134 <__modsi3+0x10>
     12a:	00054963          	bltz	a0,13c <__modsi3+0x18>
     12e:	375d                	jal	d4 <__udivsi3>
     130:	852e                	mv	a0,a1
     132:	8282                	jr	t0
     134:	40b005b3          	neg	a1,a1
     138:	fe055be3          	bgez	a0,12e <__modsi3+0xa>
     13c:	40a00533          	neg	a0,a0
     140:	3f51                	jal	d4 <__udivsi3>
     142:	40b00533          	neg	a0,a1
     146:	8282                	jr	t0
	...

0000014a <memset>:
     14a:	433d                	li	t1,15
     14c:	872a                	mv	a4,a0
     14e:	02c37363          	bgeu	t1,a2,174 <memset+0x2a>
     152:	00f77793          	andi	a5,a4,15
     156:	efbd                	bnez	a5,1d4 <memset+0x8a>
     158:	e5ad                	bnez	a1,1c2 <memset+0x78>
     15a:	ff067693          	andi	a3,a2,-16
     15e:	8a3d                	andi	a2,a2,15
     160:	96ba                	add	a3,a3,a4
     162:	c30c                	sw	a1,0(a4)
     164:	c34c                	sw	a1,4(a4)
     166:	c70c                	sw	a1,8(a4)
     168:	c74c                	sw	a1,12(a4)
     16a:	0741                	addi	a4,a4,16
     16c:	fed76be3          	bltu	a4,a3,162 <memset+0x18>
     170:	e211                	bnez	a2,174 <memset+0x2a>
     172:	8082                	ret
     174:	40c306b3          	sub	a3,t1,a2
     178:	068a                	slli	a3,a3,0x2
     17a:	00000297          	auipc	t0,0x0
     17e:	9696                	add	a3,a3,t0
     180:	00a68067          	jr	10(a3)
     184:	00b70723          	sb	a1,14(a4)
     188:	00b706a3          	sb	a1,13(a4)
     18c:	00b70623          	sb	a1,12(a4)
     190:	00b705a3          	sb	a1,11(a4)
     194:	00b70523          	sb	a1,10(a4)
     198:	00b704a3          	sb	a1,9(a4)
     19c:	00b70423          	sb	a1,8(a4)
     1a0:	00b703a3          	sb	a1,7(a4)
     1a4:	00b70323          	sb	a1,6(a4)
     1a8:	00b702a3          	sb	a1,5(a4)
     1ac:	00b70223          	sb	a1,4(a4)
     1b0:	00b701a3          	sb	a1,3(a4)
     1b4:	00b70123          	sb	a1,2(a4)
     1b8:	00b700a3          	sb	a1,1(a4)
     1bc:	00b70023          	sb	a1,0(a4)
     1c0:	8082                	ret
     1c2:	0ff5f593          	andi	a1,a1,255
     1c6:	00859693          	slli	a3,a1,0x8
     1ca:	8dd5                	or	a1,a1,a3
     1cc:	01059693          	slli	a3,a1,0x10
     1d0:	8dd5                	or	a1,a1,a3
     1d2:	b761                	j	15a <memset+0x10>
     1d4:	00279693          	slli	a3,a5,0x2
     1d8:	00000297          	auipc	t0,0x0
     1dc:	9696                	add	a3,a3,t0
     1de:	8286                	mv	t0,ra
     1e0:	fa8680e7          	jalr	-88(a3)
     1e4:	8096                	mv	ra,t0
     1e6:	17c1                	addi	a5,a5,-16
     1e8:	8f1d                	sub	a4,a4,a5
     1ea:	963e                	add	a2,a2,a5
     1ec:	f8c374e3          	bgeu	t1,a2,174 <memset+0x2a>
     1f0:	b7a5                	j	158 <memset+0xe>

000001f2 <OLEDI2CCMD>:
     1f2:	eafff2ef          	jal	t0,a0 <__riscv_save_0>
     1f6:	400057b7          	lui	a5,0x40005
     1fa:	842a                	mv	s0,a0
     1fc:	84ae                	mv	s1,a1
     1fe:	40078713          	addi	a4,a5,1024 # 40005400 <__global_pointer$+0x20004bc8>
     202:	853a                	mv	a0,a4
     204:	000205b7          	lui	a1,0x20
     208:	281010ef          	jal	ra,1c88 <I2C_GetFlagStatus>
     20c:	400057b7          	lui	a5,0x40005
     210:	40078713          	addi	a4,a5,1024 # 40005400 <__global_pointer$+0x20004bc8>
     214:	f57d                	bnez	a0,202 <OLEDI2CCMD+0x10>
     216:	4585                	li	a1,1
     218:	853a                	mv	a0,a4
     21a:	1ed010ef          	jal	ra,1c06 <I2C_GenerateSTART>
     21e:	000307b7          	lui	a5,0x30
     222:	0785                	addi	a5,a5,1
     224:	40005737          	lui	a4,0x40005
     228:	85be                	mv	a1,a5
     22a:	40070513          	addi	a0,a4,1024 # 40005400 <__global_pointer$+0x20004bc8>
     22e:	245010ef          	jal	ra,1c72 <I2C_CheckEvent>
     232:	000307b7          	lui	a5,0x30
     236:	40005737          	lui	a4,0x40005
     23a:	0785                	addi	a5,a5,1
     23c:	d565                	beqz	a0,224 <OLEDI2CCMD+0x32>
     23e:	00141593          	slli	a1,s0,0x1
     242:	4601                	li	a2,0
     244:	0fe5f593          	andi	a1,a1,254
     248:	40070513          	addi	a0,a4,1024 # 40005400 <__global_pointer$+0x20004bc8>
     24c:	00070437          	lui	s0,0x70
     250:	211010ef          	jal	ra,1c60 <I2C_Send7bitAddress>
     254:	08240413          	addi	s0,s0,130 # 70082 <_data_lma+0x6d92a>
     258:	400057b7          	lui	a5,0x40005
     25c:	40078513          	addi	a0,a5,1024 # 40005400 <__global_pointer$+0x20004bc8>
     260:	85a2                	mv	a1,s0
     262:	211010ef          	jal	ra,1c72 <I2C_CheckEvent>
     266:	400057b7          	lui	a5,0x40005
     26a:	d57d                	beqz	a0,258 <OLEDI2CCMD+0x66>
     26c:	4581                	li	a1,0
     26e:	40078513          	addi	a0,a5,1024 # 40005400 <__global_pointer$+0x20004bc8>
     272:	00070437          	lui	s0,0x70
     276:	1df010ef          	jal	ra,1c54 <I2C_SendData>
     27a:	08440413          	addi	s0,s0,132 # 70084 <_data_lma+0x6d92c>
     27e:	400057b7          	lui	a5,0x40005
     282:	40078513          	addi	a0,a5,1024 # 40005400 <__global_pointer$+0x20004bc8>
     286:	85a2                	mv	a1,s0
     288:	1eb010ef          	jal	ra,1c72 <I2C_CheckEvent>
     28c:	400057b7          	lui	a5,0x40005
     290:	d57d                	beqz	a0,27e <OLEDI2CCMD+0x8c>
     292:	85a6                	mv	a1,s1
     294:	40078513          	addi	a0,a5,1024 # 40005400 <__global_pointer$+0x20004bc8>
     298:	00070437          	lui	s0,0x70
     29c:	1b9010ef          	jal	ra,1c54 <I2C_SendData>
     2a0:	08440413          	addi	s0,s0,132 # 70084 <_data_lma+0x6d92c>
     2a4:	400054b7          	lui	s1,0x40005
     2a8:	85a2                	mv	a1,s0
     2aa:	40048513          	addi	a0,s1,1024 # 40005400 <__global_pointer$+0x20004bc8>
     2ae:	1c5010ef          	jal	ra,1c72 <I2C_CheckEvent>
     2b2:	d96d                	beqz	a0,2a4 <OLEDI2CCMD+0xb2>
     2b4:	4585                	li	a1,1
     2b6:	40048513          	addi	a0,s1,1024
     2ba:	167010ef          	jal	ra,1c20 <I2C_GenerateSTOP>
     2be:	b3f5                	j	aa <__riscv_restore_0>

000002c0 <OLEDI2CInit>:
     2c0:	de1ff2ef          	jal	t0,a0 <__riscv_save_0>
     2c4:	1101                	addi	sp,sp,-32
     2c6:	4669                	li	a2,26
     2c8:	4581                	li	a1,0
     2ca:	0048                	addi	a0,sp,4
     2cc:	3dbd                	jal	14a <memset>
     2ce:	c8b017b7          	lui	a5,0xc8b01
     2d2:	02078793          	addi	a5,a5,32 # c8b01020 <__global_pointer$+0xa8b007e8>
     2d6:	c03e                	sw	a5,0(sp)
     2d8:	47c1                	li	a5,16
     2da:	82dc                	sb	a5,5(sp)
     2dc:	77e1                	lui	a5,0xffff8
     2de:	14078793          	addi	a5,a5,320 # ffff8140 <__global_pointer$+0xdfff7908>
     2e2:	837c                	sh	a5,6(sp)
     2e4:	a8a6a7b7          	lui	a5,0xa8a6a
     2e8:	1ff78793          	addi	a5,a5,511 # a8a6a1ff <__global_pointer$+0x88a699c7>
     2ec:	c43e                	sw	a5,8(sp)
     2ee:	77e9                	lui	a5,0xffffa
     2f0:	43f78793          	addi	a5,a5,1087 # ffffa43f <__global_pointer$+0xdfff9c07>
     2f4:	867c                	sh	a5,12(sp)
     2f6:	fd300793          	li	a5,-45
     2fa:	875c                	sb	a5,14(sp)
     2fc:	22d9f7b7          	lui	a5,0x22d9f
     300:	0d578793          	addi	a5,a5,213 # 22d9f0d5 <__global_pointer$+0x2d9e89d>
     304:	c83e                	sw	a5,16(sp)
     306:	20db17b7          	lui	a5,0x20db1
     30a:	2da78793          	addi	a5,a5,730 # 20db12da <__global_pointer$+0xdb0aa2>
     30e:	ca3e                	sw	a5,20(sp)
     310:	6785                	lui	a5,0x1
     312:	48d78793          	addi	a5,a5,1165 # 148d <main+0x345>
     316:	84fc                	sh	a5,24(sp)
     318:	faf00793          	li	a5,-81
     31c:	00f10d23          	sb	a5,26(sp)
     320:	4401                	li	s0,0
     322:	008107b3          	add	a5,sp,s0
     326:	238c                	lbu	a1,0(a5)
     328:	03c00513          	li	a0,60
     32c:	0405                	addi	s0,s0,1
     32e:	35d1                	jal	1f2 <OLEDI2CCMD>
     330:	47f1                	li	a5,28
     332:	fef418e3          	bne	s0,a5,322 <OLEDI2CInit+0x62>
     336:	6105                	addi	sp,sp,32
     338:	bb8d                	j	aa <__riscv_restore_0>

0000033a <OLEDI2CSetPage>:
     33a:	d67ff2ef          	jal	t0,a0 <__riscv_save_0>
     33e:	fb050593          	addi	a1,a0,-80
     342:	0ff5f593          	andi	a1,a1,255
     346:	03c00513          	li	a0,60
     34a:	3565                	jal	1f2 <OLEDI2CCMD>
     34c:	bbb9                	j	aa <__riscv_restore_0>

0000034e <OLEDI2CSetCol>:
     34e:	d53ff2ef          	jal	t0,a0 <__riscv_save_0>
     352:	842a                	mv	s0,a0
     354:	00f57593          	andi	a1,a0,15
     358:	03c00513          	li	a0,60
     35c:	3d59                	jal	1f2 <OLEDI2CCMD>
     35e:	00445593          	srli	a1,s0,0x4
     362:	05c1                	addi	a1,a1,16
     364:	03c00513          	li	a0,60
     368:	3569                	jal	1f2 <OLEDI2CCMD>
     36a:	b381                	j	aa <__riscv_restore_0>

0000036c <OLEDI2CPutChar>:
     36c:	d35ff2ef          	jal	t0,a0 <__riscv_save_0>
     370:	1171                	addi	sp,sp,-4
     372:	c02e                	sw	a1,0(sp)
     374:	8432                	mv	s0,a2
     376:	84b6                	mv	s1,a3
     378:	37c9                	jal	33a <OLEDI2CSetPage>
     37a:	4582                	lw	a1,0(sp)
     37c:	852e                	mv	a0,a1
     37e:	3fc1                	jal	34e <OLEDI2CSetCol>
     380:	400057b7          	lui	a5,0x40005
     384:	40078713          	addi	a4,a5,1024 # 40005400 <__global_pointer$+0x20004bc8>
     388:	853a                	mv	a0,a4
     38a:	000205b7          	lui	a1,0x20
     38e:	0fb010ef          	jal	ra,1c88 <I2C_GetFlagStatus>
     392:	400057b7          	lui	a5,0x40005
     396:	40078713          	addi	a4,a5,1024 # 40005400 <__global_pointer$+0x20004bc8>
     39a:	f57d                	bnez	a0,388 <OLEDI2CPutChar+0x1c>
     39c:	4585                	li	a1,1
     39e:	853a                	mv	a0,a4
     3a0:	067010ef          	jal	ra,1c06 <I2C_GenerateSTART>
     3a4:	000307b7          	lui	a5,0x30
     3a8:	0785                	addi	a5,a5,1
     3aa:	40005737          	lui	a4,0x40005
     3ae:	85be                	mv	a1,a5
     3b0:	40070513          	addi	a0,a4,1024 # 40005400 <__global_pointer$+0x20004bc8>
     3b4:	0bf010ef          	jal	ra,1c72 <I2C_CheckEvent>
     3b8:	000307b7          	lui	a5,0x30
     3bc:	40005737          	lui	a4,0x40005
     3c0:	0785                	addi	a5,a5,1
     3c2:	d565                	beqz	a0,3aa <OLEDI2CPutChar+0x3e>
     3c4:	4601                	li	a2,0
     3c6:	07800593          	li	a1,120
     3ca:	40070513          	addi	a0,a4,1024 # 40005400 <__global_pointer$+0x20004bc8>
     3ce:	093010ef          	jal	ra,1c60 <I2C_Send7bitAddress>
     3d2:	000707b7          	lui	a5,0x70
     3d6:	08278793          	addi	a5,a5,130 # 70082 <_data_lma+0x6d92a>
     3da:	40005737          	lui	a4,0x40005
     3de:	85be                	mv	a1,a5
     3e0:	40070513          	addi	a0,a4,1024 # 40005400 <__global_pointer$+0x20004bc8>
     3e4:	08f010ef          	jal	ra,1c72 <I2C_CheckEvent>
     3e8:	000707b7          	lui	a5,0x70
     3ec:	40005737          	lui	a4,0x40005
     3f0:	08278793          	addi	a5,a5,130 # 70082 <_data_lma+0x6d92a>
     3f4:	d17d                	beqz	a0,3da <OLEDI2CPutChar+0x6e>
     3f6:	04000593          	li	a1,64
     3fa:	40070513          	addi	a0,a4,1024 # 40005400 <__global_pointer$+0x20004bc8>
     3fe:	057010ef          	jal	ra,1c54 <I2C_SendData>
     402:	000707b7          	lui	a5,0x70
     406:	08478793          	addi	a5,a5,132 # 70084 <_data_lma+0x6d92c>
     40a:	40005537          	lui	a0,0x40005
     40e:	85be                	mv	a1,a5
     410:	40050513          	addi	a0,a0,1024 # 40005400 <__global_pointer$+0x20004bc8>
     414:	05f010ef          	jal	ra,1c72 <I2C_CheckEvent>
     418:	000707b7          	lui	a5,0x70
     41c:	08478793          	addi	a5,a5,132 # 70084 <_data_lma+0x6d92c>
     420:	d56d                	beqz	a0,40a <OLEDI2CPutChar+0x9e>
     422:	00341613          	slli	a2,s0,0x3
     426:	8e01                	sub	a2,a2,s0
     428:	6789                	lui	a5,0x2
     42a:	2ac78793          	addi	a5,a5,684 # 22ac <AARR_GlcdFont_U8>
     42e:	94b2                	add	s1,s1,a2
     430:	00c78433          	add	s0,a5,a2
     434:	94be                	add	s1,s1,a5
     436:	00941b63          	bne	s0,s1,44c <OLEDI2CPutChar+0xe0>
     43a:	40005537          	lui	a0,0x40005
     43e:	4585                	li	a1,1
     440:	40050513          	addi	a0,a0,1024 # 40005400 <__global_pointer$+0x20004bc8>
     444:	7dc010ef          	jal	ra,1c20 <I2C_GenerateSTOP>
     448:	0111                	addi	sp,sp,4
     44a:	b185                	j	aa <__riscv_restore_0>
     44c:	f2044583          	lbu	a1,-224(s0)
     450:	40005537          	lui	a0,0x40005
     454:	40050513          	addi	a0,a0,1024 # 40005400 <__global_pointer$+0x20004bc8>
     458:	7fc010ef          	jal	ra,1c54 <I2C_SendData>
     45c:	000707b7          	lui	a5,0x70
     460:	08478793          	addi	a5,a5,132 # 70084 <_data_lma+0x6d92c>
     464:	40005537          	lui	a0,0x40005
     468:	85be                	mv	a1,a5
     46a:	40050513          	addi	a0,a0,1024 # 40005400 <__global_pointer$+0x20004bc8>
     46e:	005010ef          	jal	ra,1c72 <I2C_CheckEvent>
     472:	000707b7          	lui	a5,0x70
     476:	08478793          	addi	a5,a5,132 # 70084 <_data_lma+0x6d92c>
     47a:	d56d                	beqz	a0,464 <OLEDI2CPutChar+0xf8>
     47c:	0405                	addi	s0,s0,1
     47e:	bf65                	j	436 <OLEDI2CPutChar+0xca>

00000480 <OLEDI2CPutStr>:
     480:	c21ff2ef          	jal	t0,a0 <__riscv_save_0>
     484:	1161                	addi	sp,sp,-8
     486:	872a                	mv	a4,a0
     488:	84ae                	mv	s1,a1
     48a:	87b2                	mv	a5,a2
     48c:	8436                	mv	s0,a3
     48e:	e019                	bnez	s0,494 <OLEDI2CPutStr+0x14>
     490:	0121                	addi	sp,sp,8
     492:	b921                	j	aa <__riscv_restore_0>
     494:	00078603          	lb	a2,0(a5)
     498:	85a6                	mv	a1,s1
     49a:	853a                	mv	a0,a4
     49c:	4699                	li	a3,6
     49e:	c23e                	sw	a5,4(sp)
     4a0:	c03a                	sw	a4,0(sp)
     4a2:	35e9                	jal	36c <OLEDI2CPutChar>
     4a4:	4792                	lw	a5,4(sp)
     4a6:	0499                	addi	s1,s1,6
     4a8:	147d                	addi	s0,s0,-1
     4aa:	0ff4f493          	andi	s1,s1,255
     4ae:	0785                	addi	a5,a5,1
     4b0:	0ff47413          	andi	s0,s0,255
     4b4:	4702                	lw	a4,0(sp)
     4b6:	bfe1                	j	48e <OLEDI2CPutStr+0xe>

000004b8 <OLEDI2CWriteMuiltiByte>:
     4b8:	be9ff2ef          	jal	t0,a0 <__riscv_save_0>
     4bc:	1161                	addi	sp,sp,-8
     4be:	400057b7          	lui	a5,0x40005
     4c2:	842a                	mv	s0,a0
     4c4:	84ae                	mv	s1,a1
     4c6:	c032                	sw	a2,0(sp)
     4c8:	c236                	sw	a3,4(sp)
     4ca:	40078713          	addi	a4,a5,1024 # 40005400 <__global_pointer$+0x20004bc8>
     4ce:	853a                	mv	a0,a4
     4d0:	000205b7          	lui	a1,0x20
     4d4:	7b4010ef          	jal	ra,1c88 <I2C_GetFlagStatus>
     4d8:	400057b7          	lui	a5,0x40005
     4dc:	40078713          	addi	a4,a5,1024 # 40005400 <__global_pointer$+0x20004bc8>
     4e0:	f57d                	bnez	a0,4ce <OLEDI2CWriteMuiltiByte+0x16>
     4e2:	4585                	li	a1,1
     4e4:	853a                	mv	a0,a4
     4e6:	720010ef          	jal	ra,1c06 <I2C_GenerateSTART>
     4ea:	000307b7          	lui	a5,0x30
     4ee:	0785                	addi	a5,a5,1
     4f0:	40005737          	lui	a4,0x40005
     4f4:	85be                	mv	a1,a5
     4f6:	40070513          	addi	a0,a4,1024 # 40005400 <__global_pointer$+0x20004bc8>
     4fa:	778010ef          	jal	ra,1c72 <I2C_CheckEvent>
     4fe:	000307b7          	lui	a5,0x30
     502:	40005737          	lui	a4,0x40005
     506:	0785                	addi	a5,a5,1
     508:	d565                	beqz	a0,4f0 <OLEDI2CWriteMuiltiByte+0x38>
     50a:	00141593          	slli	a1,s0,0x1
     50e:	4601                	li	a2,0
     510:	0fe5f593          	andi	a1,a1,254
     514:	40070513          	addi	a0,a4,1024 # 40005400 <__global_pointer$+0x20004bc8>
     518:	00070437          	lui	s0,0x70
     51c:	744010ef          	jal	ra,1c60 <I2C_Send7bitAddress>
     520:	08240413          	addi	s0,s0,130 # 70082 <_data_lma+0x6d92a>
     524:	400057b7          	lui	a5,0x40005
     528:	40078513          	addi	a0,a5,1024 # 40005400 <__global_pointer$+0x20004bc8>
     52c:	85a2                	mv	a1,s0
     52e:	744010ef          	jal	ra,1c72 <I2C_CheckEvent>
     532:	400057b7          	lui	a5,0x40005
     536:	d57d                	beqz	a0,524 <OLEDI2CWriteMuiltiByte+0x6c>
     538:	85a6                	mv	a1,s1
     53a:	40078513          	addi	a0,a5,1024 # 40005400 <__global_pointer$+0x20004bc8>
     53e:	00070437          	lui	s0,0x70
     542:	712010ef          	jal	ra,1c54 <I2C_SendData>
     546:	08440413          	addi	s0,s0,132 # 70084 <_data_lma+0x6d92c>
     54a:	40005537          	lui	a0,0x40005
     54e:	85a2                	mv	a1,s0
     550:	40050513          	addi	a0,a0,1024 # 40005400 <__global_pointer$+0x20004bc8>
     554:	71e010ef          	jal	ra,1c72 <I2C_CheckEvent>
     558:	d96d                	beqz	a0,54a <OLEDI2CWriteMuiltiByte+0x92>
     55a:	4401                	li	s0,0
     55c:	4792                	lw	a5,4(sp)
     55e:	00f46b63          	bltu	s0,a5,574 <OLEDI2CWriteMuiltiByte+0xbc>
     562:	40005537          	lui	a0,0x40005
     566:	4585                	li	a1,1
     568:	40050513          	addi	a0,a0,1024 # 40005400 <__global_pointer$+0x20004bc8>
     56c:	6b4010ef          	jal	ra,1c20 <I2C_GenerateSTOP>
     570:	0121                	addi	sp,sp,8
     572:	be25                	j	aa <__riscv_restore_0>
     574:	4782                	lw	a5,0(sp)
     576:	40005537          	lui	a0,0x40005
     57a:	40050513          	addi	a0,a0,1024 # 40005400 <__global_pointer$+0x20004bc8>
     57e:	97a2                	add	a5,a5,s0
     580:	238c                	lbu	a1,0(a5)
     582:	000704b7          	lui	s1,0x70
     586:	08448493          	addi	s1,s1,132 # 70084 <_data_lma+0x6d92c>
     58a:	6ca010ef          	jal	ra,1c54 <I2C_SendData>
     58e:	40005537          	lui	a0,0x40005
     592:	85a6                	mv	a1,s1
     594:	40050513          	addi	a0,a0,1024 # 40005400 <__global_pointer$+0x20004bc8>
     598:	6da010ef          	jal	ra,1c72 <I2C_CheckEvent>
     59c:	d96d                	beqz	a0,58e <OLEDI2CWriteMuiltiByte+0xd6>
     59e:	0405                	addi	s0,s0,1
     5a0:	0ff47413          	andi	s0,s0,255
     5a4:	bf65                	j	55c <OLEDI2CWriteMuiltiByte+0xa4>

000005a6 <OLEDI2CFillScreen>:
     5a6:	afbff2ef          	jal	t0,a0 <__riscv_save_0>
     5aa:	7119                	addi	sp,sp,-128
     5ac:	842a                	mv	s0,a0
     5ae:	08000613          	li	a2,128
     5b2:	4581                	li	a1,0
     5b4:	850a                	mv	a0,sp
     5b6:	3e51                	jal	14a <memset>
     5b8:	4781                	li	a5,0
     5ba:	08000713          	li	a4,128
     5be:	00f106b3          	add	a3,sp,a5
     5c2:	a280                	sb	s0,0(a3)
     5c4:	0785                	addi	a5,a5,1
     5c6:	fee79ce3          	bne	a5,a4,5be <OLEDI2CFillScreen+0x18>
     5ca:	0b000413          	li	s0,176
     5ce:	85a2                	mv	a1,s0
     5d0:	03c00513          	li	a0,60
     5d4:	3939                	jal	1f2 <OLEDI2CCMD>
     5d6:	4581                	li	a1,0
     5d8:	03c00513          	li	a0,60
     5dc:	3919                	jal	1f2 <OLEDI2CCMD>
     5de:	45c1                	li	a1,16
     5e0:	03c00513          	li	a0,60
     5e4:	3139                	jal	1f2 <OLEDI2CCMD>
     5e6:	08000693          	li	a3,128
     5ea:	860a                	mv	a2,sp
     5ec:	04000593          	li	a1,64
     5f0:	03c00513          	li	a0,60
     5f4:	35d1                	jal	4b8 <OLEDI2CWriteMuiltiByte>
     5f6:	0405                	addi	s0,s0,1
     5f8:	0ff47413          	andi	s0,s0,255
     5fc:	0b800793          	li	a5,184
     600:	fcf417e3          	bne	s0,a5,5ce <OLEDI2CFillScreen+0x28>
     604:	6109                	addi	sp,sp,128
     606:	b455                	j	aa <__riscv_restore_0>

00000608 <OLEDI2CPattern>:
     608:	a99ff2ef          	jal	t0,a0 <__riscv_save_0>
     60c:	0ff00513          	li	a0,255
     610:	3f59                	jal	5a6 <OLEDI2CFillScreen>
     612:	06400513          	li	a0,100
     616:	449010ef          	jal	ra,225e <Delay_Ms>
     61a:	453d                	li	a0,15
     61c:	3769                	jal	5a6 <OLEDI2CFillScreen>
     61e:	0fa00513          	li	a0,250
     622:	43d010ef          	jal	ra,225e <Delay_Ms>
     626:	0f000513          	li	a0,240
     62a:	3fb5                	jal	5a6 <OLEDI2CFillScreen>
     62c:	0fa00513          	li	a0,250
     630:	42f010ef          	jal	ra,225e <Delay_Ms>
     634:	4501                	li	a0,0
     636:	3f85                	jal	5a6 <OLEDI2CFillScreen>
     638:	bc8d                	j	aa <__riscv_restore_0>

0000063a <AHT20FReset>:
     63a:	a67ff2ef          	jal	t0,a0 <__riscv_save_0>
     63e:	1171                	addi	sp,sp,-4
     640:	40005437          	lui	s0,0x40005
     644:	c002                	sw	zero,0(sp)
     646:	40040493          	addi	s1,s0,1024 # 40005400 <__global_pointer$+0x20004bc8>
     64a:	000205b7          	lui	a1,0x20
     64e:	8526                	mv	a0,s1
     650:	638010ef          	jal	ra,1c88 <I2C_GetFlagStatus>
     654:	f97d                	bnez	a0,64a <AHT20FReset+0x10>
     656:	40040513          	addi	a0,s0,1024
     65a:	4585                	li	a1,1
     65c:	00030437          	lui	s0,0x30
     660:	5a6010ef          	jal	ra,1c06 <I2C_GenerateSTART>
     664:	0405                	addi	s0,s0,1
     666:	400054b7          	lui	s1,0x40005
     66a:	85a2                	mv	a1,s0
     66c:	40048513          	addi	a0,s1,1024 # 40005400 <__global_pointer$+0x20004bc8>
     670:	602010ef          	jal	ra,1c72 <I2C_CheckEvent>
     674:	d96d                	beqz	a0,666 <AHT20FReset+0x2c>
     676:	4601                	li	a2,0
     678:	07000593          	li	a1,112
     67c:	40048513          	addi	a0,s1,1024
     680:	00070437          	lui	s0,0x70
     684:	5dc010ef          	jal	ra,1c60 <I2C_Send7bitAddress>
     688:	08240413          	addi	s0,s0,130 # 70082 <_data_lma+0x6d92a>
     68c:	400054b7          	lui	s1,0x40005
     690:	85a2                	mv	a1,s0
     692:	40048513          	addi	a0,s1,1024 # 40005400 <__global_pointer$+0x20004bc8>
     696:	5dc010ef          	jal	ra,1c72 <I2C_CheckEvent>
     69a:	d96d                	beqz	a0,68c <AHT20FReset+0x52>
     69c:	0ba00593          	li	a1,186
     6a0:	40048513          	addi	a0,s1,1024
     6a4:	00070437          	lui	s0,0x70
     6a8:	5ac010ef          	jal	ra,1c54 <I2C_SendData>
     6ac:	08440413          	addi	s0,s0,132 # 70084 <_data_lma+0x6d92c>
     6b0:	400054b7          	lui	s1,0x40005
     6b4:	85a2                	mv	a1,s0
     6b6:	40048513          	addi	a0,s1,1024 # 40005400 <__global_pointer$+0x20004bc8>
     6ba:	5b8010ef          	jal	ra,1c72 <I2C_CheckEvent>
     6be:	d96d                	beqz	a0,6b0 <AHT20FReset+0x76>
     6c0:	4585                	li	a1,1
     6c2:	40048513          	addi	a0,s1,1024
     6c6:	55a010ef          	jal	ra,1c20 <I2C_GenerateSTOP>
     6ca:	06400513          	li	a0,100
     6ce:	391010ef          	jal	ra,225e <Delay_Ms>
     6d2:	858a                	mv	a1,sp
     6d4:	4605                	li	a2,1
     6d6:	03800513          	li	a0,56
     6da:	139000ef          	jal	ra,1012 <I2CReadBytes>
     6de:	00010503          	lb	a0,0(sp)
     6e2:	0111                	addi	sp,sp,4
     6e4:	b2d9                	j	aa <__riscv_restore_0>

000006e6 <AHT20FInit>:
     6e6:	9bbff2ef          	jal	t0,a0 <__riscv_save_0>
     6ea:	1171                	addi	sp,sp,-4
     6ec:	40005437          	lui	s0,0x40005
     6f0:	c002                	sw	zero,0(sp)
     6f2:	40040493          	addi	s1,s0,1024 # 40005400 <__global_pointer$+0x20004bc8>
     6f6:	000205b7          	lui	a1,0x20
     6fa:	8526                	mv	a0,s1
     6fc:	58c010ef          	jal	ra,1c88 <I2C_GetFlagStatus>
     700:	f97d                	bnez	a0,6f6 <AHT20FInit+0x10>
     702:	40040513          	addi	a0,s0,1024
     706:	4585                	li	a1,1
     708:	00030437          	lui	s0,0x30
     70c:	4fa010ef          	jal	ra,1c06 <I2C_GenerateSTART>
     710:	0405                	addi	s0,s0,1
     712:	400054b7          	lui	s1,0x40005
     716:	85a2                	mv	a1,s0
     718:	40048513          	addi	a0,s1,1024 # 40005400 <__global_pointer$+0x20004bc8>
     71c:	556010ef          	jal	ra,1c72 <I2C_CheckEvent>
     720:	d96d                	beqz	a0,712 <AHT20FInit+0x2c>
     722:	4601                	li	a2,0
     724:	07000593          	li	a1,112
     728:	40048513          	addi	a0,s1,1024
     72c:	00070437          	lui	s0,0x70
     730:	530010ef          	jal	ra,1c60 <I2C_Send7bitAddress>
     734:	08240413          	addi	s0,s0,130 # 70082 <_data_lma+0x6d92a>
     738:	400054b7          	lui	s1,0x40005
     73c:	85a2                	mv	a1,s0
     73e:	40048513          	addi	a0,s1,1024 # 40005400 <__global_pointer$+0x20004bc8>
     742:	530010ef          	jal	ra,1c72 <I2C_CheckEvent>
     746:	d96d                	beqz	a0,738 <AHT20FInit+0x52>
     748:	0be00593          	li	a1,190
     74c:	40048513          	addi	a0,s1,1024
     750:	00070437          	lui	s0,0x70
     754:	500010ef          	jal	ra,1c54 <I2C_SendData>
     758:	08440413          	addi	s0,s0,132 # 70084 <_data_lma+0x6d92c>
     75c:	400054b7          	lui	s1,0x40005
     760:	85a2                	mv	a1,s0
     762:	40048513          	addi	a0,s1,1024 # 40005400 <__global_pointer$+0x20004bc8>
     766:	50c010ef          	jal	ra,1c72 <I2C_CheckEvent>
     76a:	d96d                	beqz	a0,75c <AHT20FInit+0x76>
     76c:	45a1                	li	a1,8
     76e:	40048513          	addi	a0,s1,1024
     772:	00070437          	lui	s0,0x70
     776:	4de010ef          	jal	ra,1c54 <I2C_SendData>
     77a:	08440413          	addi	s0,s0,132 # 70084 <_data_lma+0x6d92c>
     77e:	400054b7          	lui	s1,0x40005
     782:	85a2                	mv	a1,s0
     784:	40048513          	addi	a0,s1,1024 # 40005400 <__global_pointer$+0x20004bc8>
     788:	4ea010ef          	jal	ra,1c72 <I2C_CheckEvent>
     78c:	d96d                	beqz	a0,77e <AHT20FInit+0x98>
     78e:	4581                	li	a1,0
     790:	40048513          	addi	a0,s1,1024
     794:	00070437          	lui	s0,0x70
     798:	4bc010ef          	jal	ra,1c54 <I2C_SendData>
     79c:	08440413          	addi	s0,s0,132 # 70084 <_data_lma+0x6d92c>
     7a0:	400054b7          	lui	s1,0x40005
     7a4:	85a2                	mv	a1,s0
     7a6:	40048513          	addi	a0,s1,1024 # 40005400 <__global_pointer$+0x20004bc8>
     7aa:	4c8010ef          	jal	ra,1c72 <I2C_CheckEvent>
     7ae:	d96d                	beqz	a0,7a0 <AHT20FInit+0xba>
     7b0:	4585                	li	a1,1
     7b2:	40048513          	addi	a0,s1,1024
     7b6:	46a010ef          	jal	ra,1c20 <I2C_GenerateSTOP>
     7ba:	06400513          	li	a0,100
     7be:	2a1010ef          	jal	ra,225e <Delay_Ms>
     7c2:	858a                	mv	a1,sp
     7c4:	4605                	li	a2,1
     7c6:	03800513          	li	a0,56
     7ca:	049000ef          	jal	ra,1012 <I2CReadBytes>
     7ce:	8008                	lbu	a0,0(sp)
     7d0:	0111                	addi	sp,sp,4
     7d2:	8d9ff06f          	j	aa <__riscv_restore_0>

000007d6 <AHT20Measure>:
     7d6:	8cbff2ef          	jal	t0,a0 <__riscv_save_0>
     7da:	1171                	addi	sp,sp,-4
     7dc:	40005437          	lui	s0,0x40005
     7e0:	c002                	sw	zero,0(sp)
     7e2:	40040493          	addi	s1,s0,1024 # 40005400 <__global_pointer$+0x20004bc8>
     7e6:	000205b7          	lui	a1,0x20
     7ea:	8526                	mv	a0,s1
     7ec:	49c010ef          	jal	ra,1c88 <I2C_GetFlagStatus>
     7f0:	f97d                	bnez	a0,7e6 <AHT20Measure+0x10>
     7f2:	40040513          	addi	a0,s0,1024
     7f6:	4585                	li	a1,1
     7f8:	00030437          	lui	s0,0x30
     7fc:	40a010ef          	jal	ra,1c06 <I2C_GenerateSTART>
     800:	0405                	addi	s0,s0,1
     802:	400054b7          	lui	s1,0x40005
     806:	85a2                	mv	a1,s0
     808:	40048513          	addi	a0,s1,1024 # 40005400 <__global_pointer$+0x20004bc8>
     80c:	466010ef          	jal	ra,1c72 <I2C_CheckEvent>
     810:	d96d                	beqz	a0,802 <AHT20Measure+0x2c>
     812:	4601                	li	a2,0
     814:	07000593          	li	a1,112
     818:	40048513          	addi	a0,s1,1024
     81c:	00070437          	lui	s0,0x70
     820:	440010ef          	jal	ra,1c60 <I2C_Send7bitAddress>
     824:	08240413          	addi	s0,s0,130 # 70082 <_data_lma+0x6d92a>
     828:	400054b7          	lui	s1,0x40005
     82c:	85a2                	mv	a1,s0
     82e:	40048513          	addi	a0,s1,1024 # 40005400 <__global_pointer$+0x20004bc8>
     832:	440010ef          	jal	ra,1c72 <I2C_CheckEvent>
     836:	d96d                	beqz	a0,828 <AHT20Measure+0x52>
     838:	0ac00593          	li	a1,172
     83c:	40048513          	addi	a0,s1,1024
     840:	00070437          	lui	s0,0x70
     844:	410010ef          	jal	ra,1c54 <I2C_SendData>
     848:	08440413          	addi	s0,s0,132 # 70084 <_data_lma+0x6d92c>
     84c:	400054b7          	lui	s1,0x40005
     850:	85a2                	mv	a1,s0
     852:	40048513          	addi	a0,s1,1024 # 40005400 <__global_pointer$+0x20004bc8>
     856:	41c010ef          	jal	ra,1c72 <I2C_CheckEvent>
     85a:	d96d                	beqz	a0,84c <AHT20Measure+0x76>
     85c:	03300593          	li	a1,51
     860:	40048513          	addi	a0,s1,1024
     864:	00070437          	lui	s0,0x70
     868:	3ec010ef          	jal	ra,1c54 <I2C_SendData>
     86c:	08440413          	addi	s0,s0,132 # 70084 <_data_lma+0x6d92c>
     870:	400054b7          	lui	s1,0x40005
     874:	85a2                	mv	a1,s0
     876:	40048513          	addi	a0,s1,1024 # 40005400 <__global_pointer$+0x20004bc8>
     87a:	3f8010ef          	jal	ra,1c72 <I2C_CheckEvent>
     87e:	d96d                	beqz	a0,870 <AHT20Measure+0x9a>
     880:	4581                	li	a1,0
     882:	40048513          	addi	a0,s1,1024
     886:	00070437          	lui	s0,0x70
     88a:	3ca010ef          	jal	ra,1c54 <I2C_SendData>
     88e:	08440413          	addi	s0,s0,132 # 70084 <_data_lma+0x6d92c>
     892:	400054b7          	lui	s1,0x40005
     896:	85a2                	mv	a1,s0
     898:	40048513          	addi	a0,s1,1024 # 40005400 <__global_pointer$+0x20004bc8>
     89c:	3d6010ef          	jal	ra,1c72 <I2C_CheckEvent>
     8a0:	d96d                	beqz	a0,892 <AHT20Measure+0xbc>
     8a2:	4585                	li	a1,1
     8a4:	40048513          	addi	a0,s1,1024
     8a8:	378010ef          	jal	ra,1c20 <I2C_GenerateSTOP>
     8ac:	06400513          	li	a0,100
     8b0:	1af010ef          	jal	ra,225e <Delay_Ms>
     8b4:	858a                	mv	a1,sp
     8b6:	4605                	li	a2,1
     8b8:	03800513          	li	a0,56
     8bc:	756000ef          	jal	ra,1012 <I2CReadBytes>
     8c0:	8008                	lbu	a0,0(sp)
     8c2:	0111                	addi	sp,sp,4
     8c4:	fe6ff06f          	j	aa <__riscv_restore_0>

000008c8 <AHT20ReadTH>:
     8c8:	fd8ff2ef          	jal	t0,a0 <__riscv_save_0>
     8cc:	1151                	addi	sp,sp,-12
     8ce:	842a                	mv	s0,a0
     8d0:	84ae                	mv	s1,a1
     8d2:	4605                	li	a2,1
     8d4:	858a                	mv	a1,sp
     8d6:	03800513          	li	a0,56
     8da:	c002                	sw	zero,0(sp)
     8dc:	c202                	sw	zero,4(sp)
     8de:	00011423          	sh	zero,8(sp)
     8e2:	730000ef          	jal	ra,1012 <I2CReadBytes>
     8e6:	801c                	lbu	a5,0(sp)
     8e8:	8ba1                	andi	a5,a5,8
     8ea:	e399                	bnez	a5,8f0 <AHT20ReadTH+0x28>
     8ec:	33b9                	jal	63a <AHT20FReset>
     8ee:	3be5                	jal	6e6 <AHT20FInit>
     8f0:	35dd                	jal	7d6 <AHT20Measure>
     8f2:	8905                	andi	a0,a0,1
     8f4:	e519                	bnez	a0,902 <AHT20ReadTH+0x3a>
     8f6:	461d                	li	a2,7
     8f8:	858a                	mv	a1,sp
     8fa:	03800513          	li	a0,56
     8fe:	714000ef          	jal	ra,1012 <I2CReadBytes>
     902:	811c                	lbu	a5,2(sp)
     904:	8098                	lbu	a4,1(sp)
     906:	07a2                	slli	a5,a5,0x8
     908:	8fd9                	or	a5,a5,a4
     90a:	00879713          	slli	a4,a5,0x8
     90e:	83a1                	srli	a5,a5,0x8
     910:	8fd9                	or	a5,a5,a4
     912:	8198                	lbu	a4,3(sp)
     914:	07c2                	slli	a5,a5,0x10
     916:	83c1                	srli	a5,a5,0x10
     918:	0792                	slli	a5,a5,0x4
     91a:	00475693          	srli	a3,a4,0x4
     91e:	8edd                	or	a3,a3,a5
     920:	00569793          	slli	a5,a3,0x5
     924:	8f95                	sub	a5,a5,a3
     926:	078a                	slli	a5,a5,0x2
     928:	97b6                	add	a5,a5,a3
     92a:	078e                	slli	a5,a5,0x3
     92c:	83d1                	srli	a5,a5,0x14
     92e:	c09c                	sw	a5,0(s1)
     930:	821c                	lbu	a5,4(sp)
     932:	8b3d                	andi	a4,a4,15
     934:	0722                	slli	a4,a4,0x8
     936:	8f5d                	or	a4,a4,a5
     938:	829c                	lbu	a5,5(sp)
     93a:	0722                	slli	a4,a4,0x8
     93c:	8f5d                	or	a4,a4,a5
     93e:	00571793          	slli	a5,a4,0x5
     942:	8f99                	sub	a5,a5,a4
     944:	078a                	slli	a5,a5,0x2
     946:	97ba                	add	a5,a5,a4
     948:	0792                	slli	a5,a5,0x4
     94a:	83d1                	srli	a5,a5,0x14
     94c:	e0c78793          	addi	a5,a5,-500
     950:	c01c                	sw	a5,0(s0)
     952:	0131                	addi	sp,sp,12
     954:	f56ff06f          	j	aa <__riscv_restore_0>

00000958 <UsartConfig>:
     958:	f48ff2ef          	jal	t0,a0 <__riscv_save_0>
     95c:	6511                	lui	a0,0x4
     95e:	fdc10113          	addi	sp,sp,-36
     962:	4585                	li	a1,1
     964:	02050513          	addi	a0,a0,32 # 4020 <_data_lma+0x18c8>
     968:	c402                	sw	zero,8(sp)
     96a:	c602                	sw	zero,12(sp)
     96c:	c802                	sw	zero,16(sp)
     96e:	ca02                	sw	zero,20(sp)
     970:	cc02                	sw	zero,24(sp)
     972:	ce02                	sw	zero,28(sp)
     974:	d002                	sw	zero,32(sp)
     976:	c002                	sw	zero,0(sp)
     978:	c202                	sw	zero,4(sp)
     97a:	49c010ef          	jal	ra,1e16 <RCC_APB2PeriphClockCmd>
     97e:	02000793          	li	a5,32
     982:	847c                	sh	a5,8(sp)
     984:	40011437          	lui	s0,0x40011
     988:	478d                	li	a5,3
     98a:	c63e                	sw	a5,12(sp)
     98c:	002c                	addi	a1,sp,8
     98e:	47e1                	li	a5,24
     990:	40040513          	addi	a0,s0,1024 # 40011400 <__global_pointer$+0x20010bc8>
     994:	c83e                	sw	a5,16(sp)
     996:	076010ef          	jal	ra,1a0c <GPIO_Init>
     99a:	04000793          	li	a5,64
     99e:	847c                	sh	a5,8(sp)
     9a0:	002c                	addi	a1,sp,8
     9a2:	4791                	li	a5,4
     9a4:	40040513          	addi	a0,s0,1024
     9a8:	c83e                	sw	a5,16(sp)
     9aa:	062010ef          	jal	ra,1a0c <GPIO_Init>
     9ae:	67f1                	lui	a5,0x1c
     9b0:	40014437          	lui	s0,0x40014
     9b4:	20078793          	addi	a5,a5,512 # 1c200 <_data_lma+0x19aa8>
     9b8:	ca3e                	sw	a5,20(sp)
     9ba:	084c                	addi	a1,sp,20
     9bc:	000c07b7          	lui	a5,0xc0
     9c0:	80040513          	addi	a0,s0,-2048 # 40013800 <__global_pointer$+0x20012fc8>
     9c4:	ce3e                	sw	a5,28(sp)
     9c6:	cc02                	sw	zero,24(sp)
     9c8:	02011023          	sh	zero,32(sp)
     9cc:	6ee010ef          	jal	ra,20ba <USART_Init>
     9d0:	4605                	li	a2,1
     9d2:	52500593          	li	a1,1317
     9d6:	80040513          	addi	a0,s0,-2048
     9da:	7c4010ef          	jal	ra,219e <USART_ITConfig>
     9de:	12000793          	li	a5,288
     9e2:	807c                	sh	a5,0(sp)
     9e4:	4785                	li	a5,1
     9e6:	815c                	sb	a5,2(sp)
     9e8:	850a                	mv	a0,sp
     9ea:	4785                	li	a5,1
     9ec:	c23e                	sw	a5,4(sp)
     9ee:	2d2010ef          	jal	ra,1cc0 <NVIC_Init>
     9f2:	4585                	li	a1,1
     9f4:	80040513          	addi	a0,s0,-2048
     9f8:	790010ef          	jal	ra,2188 <USART_Cmd>
     9fc:	02410113          	addi	sp,sp,36
     a00:	eaaff06f          	j	aa <__riscv_restore_0>

00000a04 <UARTSendString>:
     a04:	e9cff2ef          	jal	t0,a0 <__riscv_save_0>
     a08:	1171                	addi	sp,sp,-4
     a0a:	84aa                	mv	s1,a0
     a0c:	08d010ef          	jal	ra,2298 <strlen>
     a10:	01051793          	slli	a5,a0,0x10
     a14:	83c1                	srli	a5,a5,0x10
     a16:	c03e                	sw	a5,0(sp)
     a18:	4401                	li	s0,0
     a1a:	4782                	lw	a5,0(sp)
     a1c:	01041713          	slli	a4,s0,0x10
     a20:	8341                	srli	a4,a4,0x10
     a22:	02f77b63          	bgeu	a4,a5,a58 <UARTSendString+0x54>
     a26:	40014737          	lui	a4,0x40014
     a2a:	80070693          	addi	a3,a4,-2048 # 40013800 <__global_pointer$+0x20012fc8>
     a2e:	8536                	mv	a0,a3
     a30:	08000593          	li	a1,128
     a34:	7b0010ef          	jal	ra,21e4 <USART_GetFlagStatus>
     a38:	400147b7          	lui	a5,0x40014
     a3c:	80078693          	addi	a3,a5,-2048 # 40013800 <__global_pointer$+0x20012fc8>
     a40:	40014737          	lui	a4,0x40014
     a44:	d56d                	beqz	a0,a2e <UARTSendString+0x2a>
     a46:	008486b3          	add	a3,s1,s0
     a4a:	228c                	lbu	a1,0(a3)
     a4c:	80070513          	addi	a0,a4,-2048 # 40013800 <__global_pointer$+0x20012fc8>
     a50:	0405                	addi	s0,s0,1
     a52:	782010ef          	jal	ra,21d4 <USART_SendData>
     a56:	b7d1                	j	a1a <UARTSendString+0x16>
     a58:	0111                	addi	sp,sp,4
     a5a:	e50ff06f          	j	aa <__riscv_restore_0>

00000a5e <UARTDebugPrint>:
     a5e:	e42ff2ef          	jal	t0,a0 <__riscv_save_0>
     a62:	4785                	li	a5,1
     a64:	842e                	mv	s0,a1
     a66:	00f51b63          	bne	a0,a5,a7c <UARTDebugPrint+0x1e>
     a6a:	00002537          	lui	a0,0x2
     a6e:	55450513          	addi	a0,a0,1364 # 2554 <AARR_GlcdFont_U8+0x2a8>
     a72:	3f49                	jal	a04 <UARTSendString>
     a74:	8522                	mv	a0,s0
     a76:	3779                	jal	a04 <UARTSendString>
     a78:	e32ff06f          	j	aa <__riscv_restore_0>
     a7c:	478d                	li	a5,3
     a7e:	00f51763          	bne	a0,a5,a8c <UARTDebugPrint+0x2e>
     a82:	00002537          	lui	a0,0x2
     a86:	55c50513          	addi	a0,a0,1372 # 255c <AARR_GlcdFont_U8+0x2b0>
     a8a:	b7e5                	j	a72 <UARTDebugPrint+0x14>
     a8c:	4789                	li	a5,2
     a8e:	fef513e3          	bne	a0,a5,a74 <UARTDebugPrint+0x16>
     a92:	00002537          	lui	a0,0x2
     a96:	56850513          	addi	a0,a0,1384 # 2568 <AARR_GlcdFont_U8+0x2bc>
     a9a:	bfe1                	j	a72 <UARTDebugPrint+0x14>

00000a9c <UARTSendBuffer>:
     a9c:	e04ff2ef          	jal	t0,a0 <__riscv_save_0>
     aa0:	842a                	mv	s0,a0
     aa2:	00b504b3          	add	s1,a0,a1
     aa6:	02940663          	beq	s0,s1,ad2 <UARTSendBuffer+0x36>
     aaa:	400147b7          	lui	a5,0x40014
     aae:	80078713          	addi	a4,a5,-2048 # 40013800 <__global_pointer$+0x20012fc8>
     ab2:	853a                	mv	a0,a4
     ab4:	08000593          	li	a1,128
     ab8:	72c010ef          	jal	ra,21e4 <USART_GetFlagStatus>
     abc:	400147b7          	lui	a5,0x40014
     ac0:	80078713          	addi	a4,a5,-2048 # 40013800 <__global_pointer$+0x20012fc8>
     ac4:	d57d                	beqz	a0,ab2 <UARTSendBuffer+0x16>
     ac6:	200c                	lbu	a1,0(s0)
     ac8:	853a                	mv	a0,a4
     aca:	0405                	addi	s0,s0,1
     acc:	708010ef          	jal	ra,21d4 <USART_SendData>
     ad0:	bfd9                	j	aa6 <UARTSendBuffer+0xa>
     ad2:	dd8ff06f          	j	aa <__riscv_restore_0>

00000ad6 <NMI_Handler>:
     ad6:	30200073          	mret

00000ada <HardFault_Handler>:
     ada:	a001                	j	ada <HardFault_Handler>

00000adc <RGB_PWMConfig>:
     adc:	dc4ff2ef          	jal	t0,a0 <__riscv_save_0>
     ae0:	84aa                	mv	s1,a0
     ae2:	6505                	lui	a0,0x1
     ae4:	fd410113          	addi	sp,sp,-44
     ae8:	842e                	mv	s0,a1
     aea:	83050513          	addi	a0,a0,-2000 # 830 <AHT20Measure+0x5a>
     aee:	4585                	li	a1,1
     af0:	c032                	sw	a2,0(sp)
     af2:	c802                	sw	zero,16(sp)
     af4:	ca02                	sw	zero,20(sp)
     af6:	cc02                	sw	zero,24(sp)
     af8:	ce02                	sw	zero,28(sp)
     afa:	d002                	sw	zero,32(sp)
     afc:	d202                	sw	zero,36(sp)
     afe:	d402                	sw	zero,40(sp)
     b00:	c202                	sw	zero,4(sp)
     b02:	c402                	sw	zero,8(sp)
     b04:	00011623          	sh	zero,12(sp)
     b08:	30e010ef          	jal	ra,1e16 <RCC_APB2PeriphClockCmd>
     b0c:	4585                	li	a1,1
     b0e:	4505                	li	a0,1
     b10:	324010ef          	jal	ra,1e34 <RCC_APB1PeriphClockCmd>
     b14:	47b1                	li	a5,12
     b16:	80fc                	sh	a5,16(sp)
     b18:	40011537          	lui	a0,0x40011
     b1c:	47e1                	li	a5,24
     b1e:	cc3e                	sw	a5,24(sp)
     b20:	080c                	addi	a1,sp,16
     b22:	478d                	li	a5,3
     b24:	40050513          	addi	a0,a0,1024 # 40011400 <__global_pointer$+0x20010bc8>
     b28:	ca3e                	sw	a5,20(sp)
     b2a:	6e3000ef          	jal	ra,1a0c <GPIO_Init>
     b2e:	47c1                	li	a5,16
     b30:	080c                	addi	a1,sp,16
     b32:	40011537          	lui	a0,0x40011
     b36:	80fc                	sh	a5,16(sp)
     b38:	6d5000ef          	jal	ra,1a0c <GPIO_Init>
     b3c:	8260                	sh	s0,4(sp)
     b3e:	40013437          	lui	s0,0x40013
     b42:	004c                	addi	a1,sp,4
     b44:	c0040513          	addi	a0,s0,-1024 # 40012c00 <__global_pointer$+0x200123c8>
     b48:	8464                	sh	s1,8(sp)
     b4a:	00011523          	sh	zero,10(sp)
     b4e:	00011323          	sh	zero,6(sp)
     b52:	31e010ef          	jal	ra,1e70 <TIM_TimeBaseInit>
     b56:	004c                	addi	a1,sp,4
     b58:	40000537          	lui	a0,0x40000
     b5c:	314010ef          	jal	ra,1e70 <TIM_TimeBaseInit>
     b60:	4602                	lw	a2,0(sp)
     b62:	67c1                	lui	a5,0x10
     b64:	07078793          	addi	a5,a5,112 # 10070 <_data_lma+0xd918>
     b68:	086c                	addi	a1,sp,28
     b6a:	c0040513          	addi	a0,s0,-1024
     b6e:	ce3e                	sw	a5,28(sp)
     b70:	02c11123          	sh	a2,34(sp)
     b74:	02011223          	sh	zero,36(sp)
     b78:	346010ef          	jal	ra,1ebe <TIM_OC1Init>
     b7c:	086c                	addi	a1,sp,28
     b7e:	c0040513          	addi	a0,s0,-1024
     b82:	43c010ef          	jal	ra,1fbe <TIM_OC4Init>
     b86:	086c                	addi	a1,sp,28
     b88:	40000537          	lui	a0,0x40000
     b8c:	39c010ef          	jal	ra,1f28 <TIM_OC2Init>
     b90:	c0040513          	addi	a0,s0,-1024
     b94:	4585                	li	a1,1
     b96:	4ae010ef          	jal	ra,2044 <TIM_CtrlPWMOutputs>
     b9a:	c0040513          	addi	a0,s0,-1024
     b9e:	4581                	li	a1,0
     ba0:	4d4010ef          	jal	ra,2074 <TIM_OC1PreloadConfig>
     ba4:	c0040513          	addi	a0,s0,-1024
     ba8:	4581                	li	a1,0
     baa:	4ee010ef          	jal	ra,2098 <TIM_OC4PreloadConfig>
     bae:	c0040513          	addi	a0,s0,-1024
     bb2:	4585                	li	a1,1
     bb4:	4a6010ef          	jal	ra,205a <TIM_ARRPreloadConfig>
     bb8:	c0040513          	addi	a0,s0,-1024
     bbc:	4585                	li	a1,1
     bbe:	46e010ef          	jal	ra,202c <TIM_Cmd>
     bc2:	4585                	li	a1,1
     bc4:	40000537          	lui	a0,0x40000
     bc8:	47c010ef          	jal	ra,2044 <TIM_CtrlPWMOutputs>
     bcc:	4581                	li	a1,0
     bce:	40000537          	lui	a0,0x40000
     bd2:	4b0010ef          	jal	ra,2082 <TIM_OC2PreloadConfig>
     bd6:	4585                	li	a1,1
     bd8:	40000537          	lui	a0,0x40000
     bdc:	47e010ef          	jal	ra,205a <TIM_ARRPreloadConfig>
     be0:	4585                	li	a1,1
     be2:	40000537          	lui	a0,0x40000
     be6:	446010ef          	jal	ra,202c <TIM_Cmd>
     bea:	02c10113          	addi	sp,sp,44
     bee:	cbcff06f          	j	aa <__riscv_restore_0>

00000bf2 <SetRGB>:
     bf2:	caeff2ef          	jal	t0,a0 <__riscv_save_0>
     bf6:	0ff57793          	andi	a5,a0,255
     bfa:	842a                	mv	s0,a0
     bfc:	00579513          	slli	a0,a5,0x5
     c00:	8d1d                	sub	a0,a0,a5
     c02:	050a                	slli	a0,a0,0x2
     c04:	953e                	add	a0,a0,a5
     c06:	0ff00593          	li	a1,255
     c0a:	050e                	slli	a0,a0,0x3
     c0c:	cc8ff0ef          	jal	ra,d4 <__udivsi3>
     c10:	01051593          	slli	a1,a0,0x10
     c14:	81c1                	srli	a1,a1,0x10
     c16:	40000537          	lui	a0,0x40000
     c1a:	498010ef          	jal	ra,20b2 <TIM_SetCompare2>
     c1e:	00845513          	srli	a0,s0,0x8
     c22:	0ff57793          	andi	a5,a0,255
     c26:	00579513          	slli	a0,a5,0x5
     c2a:	8d1d                	sub	a0,a0,a5
     c2c:	050a                	slli	a0,a0,0x2
     c2e:	953e                	add	a0,a0,a5
     c30:	0ff00593          	li	a1,255
     c34:	050e                	slli	a0,a0,0x3
     c36:	c9eff0ef          	jal	ra,d4 <__udivsi3>
     c3a:	400134b7          	lui	s1,0x40013
     c3e:	01051593          	slli	a1,a0,0x10
     c42:	81c1                	srli	a1,a1,0x10
     c44:	c0048513          	addi	a0,s1,-1024 # 40012c00 <__global_pointer$+0x200123c8>
     c48:	8041                	srli	s0,s0,0x10
     c4a:	0ff47413          	andi	s0,s0,255
     c4e:	468010ef          	jal	ra,20b6 <TIM_SetCompare4>
     c52:	00541513          	slli	a0,s0,0x5
     c56:	8d01                	sub	a0,a0,s0
     c58:	050a                	slli	a0,a0,0x2
     c5a:	9522                	add	a0,a0,s0
     c5c:	0ff00593          	li	a1,255
     c60:	050e                	slli	a0,a0,0x3
     c62:	c72ff0ef          	jal	ra,d4 <__udivsi3>
     c66:	01051593          	slli	a1,a0,0x10
     c6a:	81c1                	srli	a1,a1,0x10
     c6c:	c0048513          	addi	a0,s1,-1024
     c70:	43e010ef          	jal	ra,20ae <TIM_SetCompare1>
     c74:	c36ff06f          	j	aa <__riscv_restore_0>

00000c78 <BlinkLED>:
     c78:	c28ff2ef          	jal	t0,a0 <__riscv_save_0>
     c7c:	40011437          	lui	s0,0x40011
     c80:	4585                	li	a1,1
     c82:	40040513          	addi	a0,s0,1024 # 40011400 <__global_pointer$+0x20010bc8>
     c86:	65d000ef          	jal	ra,1ae2 <GPIO_SetBits>
     c8a:	03200513          	li	a0,50
     c8e:	5d0010ef          	jal	ra,225e <Delay_Ms>
     c92:	4585                	li	a1,1
     c94:	40040513          	addi	a0,s0,1024
     c98:	64f000ef          	jal	ra,1ae6 <GPIO_ResetBits>
     c9c:	03200513          	li	a0,50
     ca0:	5be010ef          	jal	ra,225e <Delay_Ms>
     ca4:	4585                	li	a1,1
     ca6:	40040513          	addi	a0,s0,1024
     caa:	639000ef          	jal	ra,1ae2 <GPIO_SetBits>
     cae:	03200513          	li	a0,50
     cb2:	5ac010ef          	jal	ra,225e <Delay_Ms>
     cb6:	4585                	li	a1,1
     cb8:	40040513          	addi	a0,s0,1024
     cbc:	62b000ef          	jal	ra,1ae6 <GPIO_ResetBits>
     cc0:	03200513          	li	a0,50
     cc4:	59a010ef          	jal	ra,225e <Delay_Ms>
     cc8:	4585                	li	a1,1
     cca:	40040513          	addi	a0,s0,1024
     cce:	615000ef          	jal	ra,1ae2 <GPIO_SetBits>
     cd2:	1f400513          	li	a0,500
     cd6:	588010ef          	jal	ra,225e <Delay_Ms>
     cda:	bd0ff06f          	j	aa <__riscv_restore_0>

00000cde <Beep>:
     cde:	bc2ff2ef          	jal	t0,a0 <__riscv_save_0>
     ce2:	4585                	li	a1,1
     ce4:	40011537          	lui	a0,0x40011
     ce8:	5fb000ef          	jal	ra,1ae2 <GPIO_SetBits>
     cec:	0fa00513          	li	a0,250
     cf0:	56e010ef          	jal	ra,225e <Delay_Ms>
     cf4:	4585                	li	a1,1
     cf6:	40011537          	lui	a0,0x40011
     cfa:	5ed000ef          	jal	ra,1ae6 <GPIO_ResetBits>
     cfe:	0fa00513          	li	a0,250
     d02:	55c010ef          	jal	ra,225e <Delay_Ms>
     d06:	4585                	li	a1,1
     d08:	40011537          	lui	a0,0x40011
     d0c:	5d7000ef          	jal	ra,1ae2 <GPIO_SetBits>
     d10:	03200513          	li	a0,50
     d14:	54a010ef          	jal	ra,225e <Delay_Ms>
     d18:	4585                	li	a1,1
     d1a:	40011537          	lui	a0,0x40011
     d1e:	5c9000ef          	jal	ra,1ae6 <GPIO_ResetBits>
     d22:	03200513          	li	a0,50
     d26:	538010ef          	jal	ra,225e <Delay_Ms>
     d2a:	4585                	li	a1,1
     d2c:	40011537          	lui	a0,0x40011
     d30:	5b3000ef          	jal	ra,1ae2 <GPIO_SetBits>
     d34:	03200513          	li	a0,50
     d38:	526010ef          	jal	ra,225e <Delay_Ms>
     d3c:	4585                	li	a1,1
     d3e:	40011537          	lui	a0,0x40011
     d42:	5a5000ef          	jal	ra,1ae6 <GPIO_ResetBits>
     d46:	03200513          	li	a0,50
     d4a:	514010ef          	jal	ra,225e <Delay_Ms>
     d4e:	b5cff06f          	j	aa <__riscv_restore_0>

00000d52 <ADCConfig>:
     d52:	b4eff2ef          	jal	t0,a0 <__riscv_save_0>
     d56:	fd410113          	addi	sp,sp,-44
     d5a:	4661                	li	a2,24
     d5c:	4581                	li	a1,0
     d5e:	0848                	addi	a0,sp,20
     d60:	beaff0ef          	jal	ra,14a <memset>
     d64:	4585                	li	a1,1
     d66:	02000513          	li	a0,32
     d6a:	c402                	sw	zero,8(sp)
     d6c:	c602                	sw	zero,12(sp)
     d6e:	c802                	sw	zero,16(sp)
     d70:	c002                	sw	zero,0(sp)
     d72:	c202                	sw	zero,4(sp)
     d74:	0a2010ef          	jal	ra,1e16 <RCC_APB2PeriphClockCmd>
     d78:	4585                	li	a1,1
     d7a:	20000513          	li	a0,512
     d7e:	098010ef          	jal	ra,1e16 <RCC_APB2PeriphClockCmd>
     d82:	6531                	lui	a0,0xc
     d84:	7e3000ef          	jal	ra,1d66 <RCC_ADCCLKConfig>
     d88:	40011537          	lui	a0,0x40011
     d8c:	47c1                	li	a5,16
     d8e:	002c                	addi	a1,sp,8
     d90:	40050513          	addi	a0,a0,1024 # 40011400 <__global_pointer$+0x20010bc8>
     d94:	40012437          	lui	s0,0x40012
     d98:	847c                	sh	a5,8(sp)
     d9a:	c802                	sw	zero,16(sp)
     d9c:	471000ef          	jal	ra,1a0c <GPIO_Init>
     da0:	40040513          	addi	a0,s0,1024 # 40012400 <__global_pointer$+0x20011bc8>
     da4:	209000ef          	jal	ra,17ac <ADC_DeInit>
     da8:	679d                	lui	a5,0x7
     daa:	d03e                	sw	a5,32(sp)
     dac:	084c                	addi	a1,sp,20
     dae:	4785                	li	a5,1
     db0:	40040513          	addi	a0,s0,1024
     db4:	02f10423          	sb	a5,40(sp)
     db8:	ca02                	sw	zero,20(sp)
     dba:	cc02                	sw	zero,24(sp)
     dbc:	ce02                	sw	zero,28(sp)
     dbe:	d202                	sw	zero,36(sp)
     dc0:	213000ef          	jal	ra,17d2 <ADC_Init>
     dc4:	4585                	li	a1,1
     dc6:	40040513          	addi	a0,s0,1024
     dca:	347000ef          	jal	ra,1910 <ADC_InjectedSequencerLengthConfig>
     dce:	469d                	li	a3,7
     dd0:	4605                	li	a2,1
     dd2:	459d                	li	a1,7
     dd4:	40040513          	addi	a0,s0,1024
     dd8:	2bf000ef          	jal	ra,1896 <ADC_InjectedChannelConfig>
     ddc:	4581                	li	a1,0
     dde:	40040513          	addi	a0,s0,1024
     de2:	289000ef          	jal	ra,186a <ADC_ExternalTrigInjectedConvCmd>
     de6:	21d00793          	li	a5,541
     dea:	807c                	sh	a5,0(sp)
     dec:	850a                	mv	a0,sp
     dee:	4785                	li	a5,1
     df0:	c23e                	sw	a5,4(sp)
     df2:	00010123          	sb	zero,2(sp)
     df6:	6cb000ef          	jal	ra,1cc0 <NVIC_Init>
     dfa:	020005b7          	lui	a1,0x2000
     dfe:	40040513          	addi	a0,s0,1024
     e02:	365000ef          	jal	ra,1966 <ADC_Calibration_Vol>
     e06:	4605                	li	a2,1
     e08:	48000593          	li	a1,1152
     e0c:	40040513          	addi	a0,s0,1024
     e10:	221000ef          	jal	ra,1830 <ADC_ITConfig>
     e14:	4585                	li	a1,1
     e16:	40040513          	addi	a0,s0,1024
     e1a:	207000ef          	jal	ra,1820 <ADC_Cmd>
     e1e:	40040513          	addi	a0,s0,1024
     e22:	225000ef          	jal	ra,1846 <ADC_ResetCalibration>
     e26:	40040493          	addi	s1,s0,1024
     e2a:	8526                	mv	a0,s1
     e2c:	225000ef          	jal	ra,1850 <ADC_GetResetCalibrationStatus>
     e30:	fd6d                	bnez	a0,e2a <ADCConfig+0xd8>
     e32:	40040513          	addi	a0,s0,1024
     e36:	40012437          	lui	s0,0x40012
     e3a:	21f000ef          	jal	ra,1858 <ADC_StartCalibration>
     e3e:	40040413          	addi	s0,s0,1024 # 40012400 <__global_pointer$+0x20011bc8>
     e42:	8522                	mv	a0,s0
     e44:	21f000ef          	jal	ra,1862 <ADC_GetCalibrationStatus>
     e48:	fd6d                	bnez	a0,e42 <ADCConfig+0xf0>
     e4a:	02c10113          	addi	sp,sp,44
     e4e:	a5cff06f          	j	aa <__riscv_restore_0>

00000e52 <GPIOConfig>:
     e52:	a4eff2ef          	jal	t0,a0 <__riscv_save_0>
     e56:	1141                	addi	sp,sp,-16
     e58:	4585                	li	a1,1
     e5a:	4511                	li	a0,4
     e5c:	c202                	sw	zero,4(sp)
     e5e:	c402                	sw	zero,8(sp)
     e60:	c602                	sw	zero,12(sp)
     e62:	7b5000ef          	jal	ra,1e16 <RCC_APB2PeriphClockCmd>
     e66:	4585                	li	a1,1
     e68:	4541                	li	a0,16
     e6a:	7ad000ef          	jal	ra,1e16 <RCC_APB2PeriphClockCmd>
     e6e:	4585                	li	a1,1
     e70:	02000513          	li	a0,32
     e74:	7a3000ef          	jal	ra,1e16 <RCC_APB2PeriphClockCmd>
     e78:	400117b7          	lui	a5,0x40011
     e7c:	4441                	li	s0,16
     e7e:	448d                	li	s1,3
     e80:	4705                	li	a4,1
     e82:	40078513          	addi	a0,a5,1024 # 40011400 <__global_pointer$+0x20010bc8>
     e86:	004c                	addi	a1,sp,4
     e88:	8278                	sh	a4,4(sp)
     e8a:	c03a                	sw	a4,0(sp)
     e8c:	c622                	sw	s0,12(sp)
     e8e:	c426                	sw	s1,8(sp)
     e90:	37d000ef          	jal	ra,1a0c <GPIO_Init>
     e94:	4702                	lw	a4,0(sp)
     e96:	004c                	addi	a1,sp,4
     e98:	40011537          	lui	a0,0x40011
     e9c:	8278                	sh	a4,4(sp)
     e9e:	c622                	sw	s0,12(sp)
     ea0:	c426                	sw	s1,8(sp)
     ea2:	36b000ef          	jal	ra,1a0c <GPIO_Init>
     ea6:	400117b7          	lui	a5,0x40011
     eaa:	4711                	li	a4,4
     eac:	40078513          	addi	a0,a5,1024 # 40011400 <__global_pointer$+0x20010bc8>
     eb0:	004c                	addi	a1,sp,4
     eb2:	8278                	sh	a4,4(sp)
     eb4:	c622                	sw	s0,12(sp)
     eb6:	c426                	sw	s1,8(sp)
     eb8:	355000ef          	jal	ra,1a0c <GPIO_Init>
     ebc:	004c                	addi	a1,sp,4
     ebe:	40011537          	lui	a0,0x40011
     ec2:	8260                	sh	s0,4(sp)
     ec4:	c622                	sw	s0,12(sp)
     ec6:	c426                	sw	s1,8(sp)
     ec8:	345000ef          	jal	ra,1a0c <GPIO_Init>
     ecc:	400117b7          	lui	a5,0x40011
     ed0:	4721                	li	a4,8
     ed2:	004c                	addi	a1,sp,4
     ed4:	40078513          	addi	a0,a5,1024 # 40011400 <__global_pointer$+0x20010bc8>
     ed8:	8278                	sh	a4,4(sp)
     eda:	c622                	sw	s0,12(sp)
     edc:	c426                	sw	s1,8(sp)
     ede:	32f000ef          	jal	ra,1a0c <GPIO_Init>
     ee2:	0141                	addi	sp,sp,16
     ee4:	9c6ff06f          	j	aa <__riscv_restore_0>

00000ee8 <KeysConfig>:
     ee8:	9b8ff2ef          	jal	t0,a0 <__riscv_save_0>
     eec:	fdc10113          	addi	sp,sp,-36
     ef0:	4585                	li	a1,1
     ef2:	4515                	li	a0,5
     ef4:	400114b7          	lui	s1,0x40011
     ef8:	c402                	sw	zero,8(sp)
     efa:	c602                	sw	zero,12(sp)
     efc:	c802                	sw	zero,16(sp)
     efe:	ca02                	sw	zero,20(sp)
     f00:	cc02                	sw	zero,24(sp)
     f02:	ce02                	sw	zero,28(sp)
     f04:	d002                	sw	zero,32(sp)
     f06:	c002                	sw	zero,0(sp)
     f08:	c202                	sw	zero,4(sp)
     f0a:	70d000ef          	jal	ra,1e16 <RCC_APB2PeriphClockCmd>
     f0e:	4411                	li	s0,4
     f10:	4789                	li	a5,2
     f12:	002c                	addi	a1,sp,8
     f14:	80048513          	addi	a0,s1,-2048 # 40010800 <__global_pointer$+0x2000ffc8>
     f18:	847c                	sh	a5,8(sp)
     f1a:	c822                	sw	s0,16(sp)
     f1c:	2f1000ef          	jal	ra,1a0c <GPIO_Init>
     f20:	002c                	addi	a1,sp,8
     f22:	80048513          	addi	a0,s1,-2048
     f26:	8460                	sh	s0,8(sp)
     f28:	c822                	sw	s0,16(sp)
     f2a:	2e3000ef          	jal	ra,1a0c <GPIO_Init>
     f2e:	4585                	li	a1,1
     f30:	4501                	li	a0,0
     f32:	3b9000ef          	jal	ra,1aea <GPIO_EXTILineConfig>
     f36:	4789                	li	a5,2
     f38:	4485                	li	s1,1
     f3a:	ca3e                	sw	a5,20(sp)
     f3c:	0848                	addi	a0,sp,20
     f3e:	47b1                	li	a5,12
     f40:	ce3e                	sw	a5,28(sp)
     f42:	d026                	sw	s1,32(sp)
     f44:	cc02                	sw	zero,24(sp)
     f46:	235000ef          	jal	ra,197a <EXTI_Init>
     f4a:	4589                	li	a1,2
     f4c:	4501                	li	a0,0
     f4e:	39d000ef          	jal	ra,1aea <GPIO_EXTILineConfig>
     f52:	47b1                	li	a5,12
     f54:	0848                	addi	a0,sp,20
     f56:	ca22                	sw	s0,20(sp)
     f58:	ce3e                	sw	a5,28(sp)
     f5a:	d026                	sw	s1,32(sp)
     f5c:	cc02                	sw	zero,24(sp)
     f5e:	21d000ef          	jal	ra,197a <EXTI_Init>
     f62:	47d1                	li	a5,20
     f64:	850a                	mv	a0,sp
     f66:	807c                	sh	a5,0(sp)
     f68:	c226                	sw	s1,4(sp)
     f6a:	00010123          	sb	zero,2(sp)
     f6e:	553000ef          	jal	ra,1cc0 <NVIC_Init>
     f72:	02410113          	addi	sp,sp,36
     f76:	934ff06f          	j	aa <__riscv_restore_0>

00000f7a <IIC_Init>:
     f7a:	926ff2ef          	jal	t0,a0 <__riscv_save_0>
     f7e:	fdc10113          	addi	sp,sp,-36
     f82:	c22a                	sw	a0,4(sp)
     f84:	c02e                	sw	a1,0(sp)
     f86:	4545                	li	a0,17
     f88:	4585                	li	a1,1
     f8a:	c402                	sw	zero,8(sp)
     f8c:	c602                	sw	zero,12(sp)
     f8e:	c802                	sw	zero,16(sp)
     f90:	ca02                	sw	zero,20(sp)
     f92:	cc02                	sw	zero,24(sp)
     f94:	ce02                	sw	zero,28(sp)
     f96:	d002                	sw	zero,32(sp)
     f98:	67f000ef          	jal	ra,1e16 <RCC_APB2PeriphClockCmd>
     f9c:	4585                	li	a1,1
     f9e:	00200537          	lui	a0,0x200
     fa2:	693000ef          	jal	ra,1e34 <RCC_APB1PeriphClockCmd>
     fa6:	4691                	li	a3,4
     fa8:	44f1                	li	s1,28
     faa:	440d                	li	s0,3
     fac:	002c                	addi	a1,sp,8
     fae:	40011537          	lui	a0,0x40011
     fb2:	8474                	sh	a3,8(sp)
     fb4:	c826                	sw	s1,16(sp)
     fb6:	c622                	sw	s0,12(sp)
     fb8:	255000ef          	jal	ra,1a0c <GPIO_Init>
     fbc:	4689                	li	a3,2
     fbe:	002c                	addi	a1,sp,8
     fc0:	40011537          	lui	a0,0x40011
     fc4:	8474                	sh	a3,8(sp)
     fc6:	c826                	sw	s1,16(sp)
     fc8:	c622                	sw	s0,12(sp)
     fca:	243000ef          	jal	ra,1a0c <GPIO_Init>
     fce:	4782                	lw	a5,0(sp)
     fd0:	4712                	lw	a4,4(sp)
     fd2:	40005437          	lui	s0,0x40005
     fd6:	86fc                	sh	a5,28(sp)
     fd8:	40000793          	li	a5,1024
     fdc:	ca3a                	sw	a4,20(sp)
     fde:	87fc                	sh	a5,30(sp)
     fe0:	bfff0737          	lui	a4,0xbfff0
     fe4:	6791                	lui	a5,0x4
     fe6:	084c                	addi	a1,sp,20
     fe8:	40040513          	addi	a0,s0,1024 # 40005400 <__global_pointer$+0x20004bc8>
     fec:	cc3a                	sw	a4,24(sp)
     fee:	02f11023          	sh	a5,32(sp)
     ff2:	31b000ef          	jal	ra,1b0c <I2C_Init>
     ff6:	40040513          	addi	a0,s0,1024
     ffa:	4585                	li	a1,1
     ffc:	3f3000ef          	jal	ra,1bee <I2C_Cmd>
    1000:	4585                	li	a1,1
    1002:	40040513          	addi	a0,s0,1024
    1006:	435000ef          	jal	ra,1c3a <I2C_AcknowledgeConfig>
    100a:	02410113          	addi	sp,sp,36
    100e:	89cff06f          	j	aa <__riscv_restore_0>

00001012 <I2CReadBytes>:
    1012:	88eff2ef          	jal	t0,a0 <__riscv_save_0>
    1016:	1171                	addi	sp,sp,-4
    1018:	c02a                	sw	a0,0(sp)
    101a:	40005537          	lui	a0,0x40005
    101e:	84ae                	mv	s1,a1
    1020:	40050513          	addi	a0,a0,1024 # 40005400 <__global_pointer$+0x20004bc8>
    1024:	4585                	li	a1,1
    1026:	8432                	mv	s0,a2
    1028:	3df000ef          	jal	ra,1c06 <I2C_GenerateSTART>
    102c:	000307b7          	lui	a5,0x30
    1030:	0785                	addi	a5,a5,1
    1032:	40005737          	lui	a4,0x40005
    1036:	85be                	mv	a1,a5
    1038:	40070513          	addi	a0,a4,1024 # 40005400 <__global_pointer$+0x20004bc8>
    103c:	437000ef          	jal	ra,1c72 <I2C_CheckEvent>
    1040:	000307b7          	lui	a5,0x30
    1044:	40005737          	lui	a4,0x40005
    1048:	0785                	addi	a5,a5,1
    104a:	d565                	beqz	a0,1032 <I2CReadBytes+0x20>
    104c:	4782                	lw	a5,0(sp)
    104e:	4605                	li	a2,1
    1050:	40070513          	addi	a0,a4,1024 # 40005400 <__global_pointer$+0x20004bc8>
    1054:	00179593          	slli	a1,a5,0x1
    1058:	0fe5f593          	andi	a1,a1,254
    105c:	405000ef          	jal	ra,1c60 <I2C_Send7bitAddress>
    1060:	000307b7          	lui	a5,0x30
    1064:	0789                	addi	a5,a5,2
    1066:	40005737          	lui	a4,0x40005
    106a:	85be                	mv	a1,a5
    106c:	40070513          	addi	a0,a4,1024 # 40005400 <__global_pointer$+0x20004bc8>
    1070:	403000ef          	jal	ra,1c72 <I2C_CheckEvent>
    1074:	000307b7          	lui	a5,0x30
    1078:	40005737          	lui	a4,0x40005
    107c:	0789                	addi	a5,a5,2
    107e:	d565                	beqz	a0,1066 <I2CReadBytes+0x54>
    1080:	4585                	li	a1,1
    1082:	40070513          	addi	a0,a4,1024 # 40005400 <__global_pointer$+0x20004bc8>
    1086:	3b5000ef          	jal	ra,1c3a <I2C_AcknowledgeConfig>
    108a:	e819                	bnez	s0,10a0 <I2CReadBytes+0x8e>
    108c:	40005537          	lui	a0,0x40005
    1090:	4585                	li	a1,1
    1092:	40050513          	addi	a0,a0,1024 # 40005400 <__global_pointer$+0x20004bc8>
    1096:	38b000ef          	jal	ra,1c20 <I2C_GenerateSTOP>
    109a:	0111                	addi	sp,sp,4
    109c:	80eff06f          	j	aa <__riscv_restore_0>
    10a0:	4785                	li	a5,1
    10a2:	00f41963          	bne	s0,a5,10b4 <I2CReadBytes+0xa2>
    10a6:	40005537          	lui	a0,0x40005
    10aa:	4581                	li	a1,0
    10ac:	40050513          	addi	a0,a0,1024 # 40005400 <__global_pointer$+0x20004bc8>
    10b0:	38b000ef          	jal	ra,1c3a <I2C_AcknowledgeConfig>
    10b4:	400057b7          	lui	a5,0x40005
    10b8:	100005b7          	lui	a1,0x10000
    10bc:	40078513          	addi	a0,a5,1024 # 40005400 <__global_pointer$+0x20004bc8>
    10c0:	04058593          	addi	a1,a1,64 # 10000040 <_data_lma+0xfffd8e8>
    10c4:	3c5000ef          	jal	ra,1c88 <I2C_GetFlagStatus>
    10c8:	400057b7          	lui	a5,0x40005
    10cc:	dd5d                	beqz	a0,108a <I2CReadBytes+0x78>
    10ce:	40078513          	addi	a0,a5,1024 # 40005400 <__global_pointer$+0x20004bc8>
    10d2:	147d                	addi	s0,s0,-1
    10d4:	385000ef          	jal	ra,1c58 <I2C_ReceiveData>
    10d8:	0442                	slli	s0,s0,0x10
    10da:	a088                	sb	a0,0(s1)
    10dc:	8041                	srli	s0,s0,0x10
    10de:	0485                	addi	s1,s1,1
    10e0:	b76d                	j	108a <I2CReadBytes+0x78>

000010e2 <DigitSeperation>:
    10e2:	fbffe2ef          	jal	t0,a0 <__riscv_save_0>
    10e6:	1171                	addi	sp,sp,-4
    10e8:	84aa                	mv	s1,a0
    10ea:	87ae                	mv	a5,a1
    10ec:	00c58433          	add	s0,a1,a2
    10f0:	00879563          	bne	a5,s0,10fa <DigitSeperation+0x18>
    10f4:	0111                	addi	sp,sp,4
    10f6:	fb5fe06f          	j	aa <__riscv_restore_0>
    10fa:	45a9                	li	a1,10
    10fc:	8526                	mv	a0,s1
    10fe:	c03e                	sw	a5,0(sp)
    1100:	800ff0ef          	jal	ra,100 <__umodsi3>
    1104:	03050513          	addi	a0,a0,48
    1108:	fea40fa3          	sb	a0,-1(s0)
    110c:	45a9                	li	a1,10
    110e:	8526                	mv	a0,s1
    1110:	fc5fe0ef          	jal	ra,d4 <__udivsi3>
    1114:	84aa                	mv	s1,a0
    1116:	147d                	addi	s0,s0,-1
    1118:	4782                	lw	a5,0(sp)
    111a:	bfd9                	j	10f0 <DigitSeperation+0xe>

0000111c <EXTI7_0_IRQHandler>:
    111c:	4509                	li	a0,2
    111e:	0c7000ef          	jal	ra,19e4 <EXTI_GetITStatus>
    1122:	c519                	beqz	a0,1130 <EXTI7_0_IRQHandler+0x14>
    1124:	4705                	li	a4,1
    1126:	4509                	li	a0,2
    1128:	90e18323          	sb	a4,-1786(gp) # 2000013e <SW2Flag>
    112c:	0d7000ef          	jal	ra,1a02 <EXTI_ClearITPendingBit>
    1130:	4511                	li	a0,4
    1132:	0b3000ef          	jal	ra,19e4 <EXTI_GetITStatus>
    1136:	c519                	beqz	a0,1144 <EXTI7_0_IRQHandler+0x28>
    1138:	4705                	li	a4,1
    113a:	4511                	li	a0,4
    113c:	90e183a3          	sb	a4,-1785(gp) # 2000013f <SW3Flag>
    1140:	0c3000ef          	jal	ra,1a02 <EXTI_ClearITPendingBit>
    1144:	30200073          	mret

00001148 <main>:
    1148:	f59fe2ef          	jal	t0,a0 <__riscv_save_0>
    114c:	4509                	li	a0,2
    114e:	36d000ef          	jal	ra,1cba <NVIC_PriorityGroupConfig>
    1152:	2b15                	jal	1686 <SystemCoreClockUpdate>
    1154:	0d6010ef          	jal	ra,222a <Delay_Init>
    1158:	39ed                	jal	e52 <GPIOConfig>
    115a:	3379                	jal	ee8 <KeysConfig>
    115c:	ffcff0ef          	jal	ra,958 <UsartConfig>
    1160:	6561                	lui	a0,0x18
    1162:	04400593          	li	a1,68
    1166:	6a050513          	addi	a0,a0,1696 # 186a0 <_data_lma+0x15f48>
    116a:	3d01                	jal	f7a <IIC_Init>
    116c:	954ff0ef          	jal	ra,2c0 <OLEDI2CInit>
    1170:	be3ff0ef          	jal	ra,d52 <ADCConfig>
    1174:	b6bff0ef          	jal	ra,cde <Beep>
    1178:	000025b7          	lui	a1,0x2
    117c:	57458593          	addi	a1,a1,1396 # 2574 <AARR_GlcdFont_U8+0x2c8>
    1180:	4501                	li	a0,0
    1182:	8ddff0ef          	jal	ra,a5e <UARTDebugPrint>
    1186:	000025b7          	lui	a1,0x2
    118a:	57c58593          	addi	a1,a1,1404 # 257c <AARR_GlcdFont_U8+0x2d0>
    118e:	4505                	li	a0,1
    1190:	8cfff0ef          	jal	ra,a5e <UARTDebugPrint>
    1194:	000025b7          	lui	a1,0x2
    1198:	58c58593          	addi	a1,a1,1420 # 258c <AARR_GlcdFont_U8+0x2e0>
    119c:	4505                	li	a0,1
    119e:	8c1ff0ef          	jal	ra,a5e <UARTDebugPrint>
    11a2:	000025b7          	lui	a1,0x2
    11a6:	5a458593          	addi	a1,a1,1444 # 25a4 <AARR_GlcdFont_U8+0x2f8>
    11aa:	4505                	li	a0,1
    11ac:	8b3ff0ef          	jal	ra,a5e <UARTDebugPrint>
    11b0:	000025b7          	lui	a1,0x2
    11b4:	5c458593          	addi	a1,a1,1476 # 25c4 <AARR_GlcdFont_U8+0x318>
    11b8:	4505                	li	a0,1
    11ba:	8a5ff0ef          	jal	ra,a5e <UARTDebugPrint>
    11be:	1f400513          	li	a0,500
    11c2:	09c010ef          	jal	ra,225e <Delay_Ms>
    11c6:	c42ff0ef          	jal	ra,608 <OLEDI2CPattern>
    11ca:	000025b7          	lui	a1,0x2
    11ce:	5d858593          	addi	a1,a1,1496 # 25d8 <AARR_GlcdFont_U8+0x32c>
    11d2:	4505                	li	a0,1
    11d4:	88bff0ef          	jal	ra,a5e <UARTDebugPrint>
    11d8:	4529                	li	a0,10
    11da:	084010ef          	jal	ra,225e <Delay_Ms>
    11de:	40012537          	lui	a0,0x40012
    11e2:	4585                	li	a1,1
    11e4:	40050513          	addi	a0,a0,1024 # 40012400 <__global_pointer$+0x20011bc8>
    11e8:	696000ef          	jal	ra,187e <ADC_SoftwareStartInjectedConvCmd>
    11ec:	000025b7          	lui	a1,0x2
    11f0:	5ec58593          	addi	a1,a1,1516 # 25ec <AARR_GlcdFont_U8+0x340>
    11f4:	4505                	li	a0,1
    11f6:	869ff0ef          	jal	ra,a5e <UARTDebugPrint>
    11fa:	4601                	li	a2,0
    11fc:	02f00593          	li	a1,47
    1200:	3e700513          	li	a0,999
    1204:	8d9ff0ef          	jal	ra,adc <RGB_PWMConfig>
    1208:	01000437          	lui	s0,0x1000
    120c:	fff40513          	addi	a0,s0,-1 # ffffff <_data_lma+0xffd8a7>
    1210:	9e3ff0ef          	jal	ra,bf2 <SetRGB>
    1214:	000025b7          	lui	a1,0x2
    1218:	60058593          	addi	a1,a1,1536 # 2600 <AARR_GlcdFont_U8+0x354>
    121c:	4505                	li	a0,1
    121e:	841ff0ef          	jal	ra,a5e <UARTDebugPrint>
    1222:	000025b7          	lui	a1,0x2
    1226:	61858593          	addi	a1,a1,1560 # 2618 <AARR_GlcdFont_U8+0x36c>
    122a:	4505                	li	a0,1
    122c:	833ff0ef          	jal	ra,a5e <UARTDebugPrint>
    1230:	00002637          	lui	a2,0x2
    1234:	46c9                	li	a3,18
    1236:	63460613          	addi	a2,a2,1588 # 2634 <AARR_GlcdFont_U8+0x388>
    123a:	4581                	li	a1,0
    123c:	4509                	li	a0,2
    123e:	a42ff0ef          	jal	ra,480 <OLEDI2CPutStr>
    1242:	00002637          	lui	a2,0x2
    1246:	46c1                	li	a3,16
    1248:	64860613          	addi	a2,a2,1608 # 2648 <AARR_GlcdFont_U8+0x39c>
    124c:	4581                	li	a1,0
    124e:	450d                	li	a0,3
    1250:	a30ff0ef          	jal	ra,480 <OLEDI2CPutStr>
    1254:	00002637          	lui	a2,0x2
    1258:	46c5                	li	a3,17
    125a:	65c60613          	addi	a2,a2,1628 # 265c <AARR_GlcdFont_U8+0x3b0>
    125e:	4581                	li	a1,0
    1260:	4511                	li	a0,4
    1262:	a1eff0ef          	jal	ra,480 <OLEDI2CPutStr>
    1266:	00002637          	lui	a2,0x2
    126a:	46c1                	li	a3,16
    126c:	67060613          	addi	a2,a2,1648 # 2670 <AARR_GlcdFont_U8+0x3c4>
    1270:	4581                	li	a1,0
    1272:	4515                	li	a0,5
    1274:	a0cff0ef          	jal	ra,480 <OLEDI2CPutStr>
    1278:	7d000513          	li	a0,2000
    127c:	7e3000ef          	jal	ra,225e <Delay_Ms>
    1280:	000025b7          	lui	a1,0x2
    1284:	68458593          	addi	a1,a1,1668 # 2684 <AARR_GlcdFont_U8+0x3d8>
    1288:	4505                	li	a0,1
    128a:	fd4ff0ef          	jal	ra,a5e <UARTDebugPrint>
    128e:	6541                	lui	a0,0x10
    1290:	157d                	addi	a0,a0,-1
    1292:	961ff0ef          	jal	ra,bf2 <SetRGB>
    1296:	1f400513          	li	a0,500
    129a:	7c5000ef          	jal	ra,225e <Delay_Ms>
    129e:	00ff0537          	lui	a0,0xff0
    12a2:	0ff50513          	addi	a0,a0,255 # ff00ff <_data_lma+0xfed9a7>
    12a6:	94dff0ef          	jal	ra,bf2 <SetRGB>
    12aa:	1f400513          	li	a0,500
    12ae:	7b1000ef          	jal	ra,225e <Delay_Ms>
    12b2:	f0040513          	addi	a0,s0,-256
    12b6:	93dff0ef          	jal	ra,bf2 <SetRGB>
    12ba:	1f400513          	li	a0,500
    12be:	7a1000ef          	jal	ra,225e <Delay_Ms>
    12c2:	fff40513          	addi	a0,s0,-1
    12c6:	92dff0ef          	jal	ra,bf2 <SetRGB>
    12ca:	4501                	li	a0,0
    12cc:	adaff0ef          	jal	ra,5a6 <OLEDI2CFillScreen>
    12d0:	000025b7          	lui	a1,0x2
    12d4:	69c58593          	addi	a1,a1,1692 # 269c <AARR_GlcdFont_U8+0x3f0>
    12d8:	4505                	li	a0,1
    12da:	f84ff0ef          	jal	ra,a5e <UARTDebugPrint>
    12de:	000027b7          	lui	a5,0x2
    12e2:	46c1                	li	a3,16
    12e4:	6b478613          	addi	a2,a5,1716 # 26b4 <AARR_GlcdFont_U8+0x408>
    12e8:	4581                	li	a1,0
    12ea:	4501                	li	a0,0
    12ec:	994ff0ef          	jal	ra,480 <OLEDI2CPutStr>
    12f0:	000025b7          	lui	a1,0x2
    12f4:	6c858593          	addi	a1,a1,1736 # 26c8 <AARR_GlcdFont_U8+0x41c>
    12f8:	4505                	li	a0,1
    12fa:	f64ff0ef          	jal	ra,a5e <UARTDebugPrint>
    12fe:	200005b7          	lui	a1,0x20000
    1302:	03858593          	addi	a1,a1,56 # 20000038 <_edata>
    1306:	90818513          	addi	a0,gp,-1784 # 20000140 <T>
    130a:	dbeff0ef          	jal	ra,8c8 <AHT20ReadTH>
    130e:	200007b7          	lui	a5,0x20000
    1312:	03878713          	addi	a4,a5,56 # 20000038 <_edata>
    1316:	4308                	lw	a0,0(a4)
    1318:	460d                	li	a2,3
    131a:	91418593          	addi	a1,gp,-1772 # 2000014c <digitSep>
    131e:	33d1                	jal	10e2 <DigitSeperation>
    1320:	00002637          	lui	a2,0x2
    1324:	6d860593          	addi	a1,a2,1752 # 26d8 <AARR_GlcdFont_U8+0x42c>
    1328:	4505                	li	a0,1
    132a:	f34ff0ef          	jal	ra,a5e <UARTDebugPrint>
    132e:	4589                	li	a1,2
    1330:	91418513          	addi	a0,gp,-1772 # 2000014c <digitSep>
    1334:	f68ff0ef          	jal	ra,a9c <UARTSendBuffer>
    1338:	000027b7          	lui	a5,0x2
    133c:	6e478593          	addi	a1,a5,1764 # 26e4 <AARR_GlcdFont_U8+0x438>
    1340:	4501                	li	a0,0
    1342:	91418493          	addi	s1,gp,-1772 # 2000014c <digitSep>
    1346:	f18ff0ef          	jal	ra,a5e <UARTDebugPrint>
    134a:	0489                	addi	s1,s1,2
    134c:	8526                	mv	a0,s1
    134e:	4585                	li	a1,1
    1350:	f4cff0ef          	jal	ra,a9c <UARTSendBuffer>
    1354:	000025b7          	lui	a1,0x2
    1358:	6e858593          	addi	a1,a1,1768 # 26e8 <AARR_GlcdFont_U8+0x43c>
    135c:	4501                	li	a0,0
    135e:	f00ff0ef          	jal	ra,a5e <UARTDebugPrint>
    1362:	00002637          	lui	a2,0x2
    1366:	46a9                	li	a3,10
    1368:	6d860613          	addi	a2,a2,1752 # 26d8 <AARR_GlcdFont_U8+0x42c>
    136c:	4581                	li	a1,0
    136e:	4509                	li	a0,2
    1370:	910ff0ef          	jal	ra,480 <OLEDI2CPutStr>
    1374:	4689                	li	a3,2
    1376:	91418613          	addi	a2,gp,-1772 # 2000014c <digitSep>
    137a:	03c00593          	li	a1,60
    137e:	4509                	li	a0,2
    1380:	900ff0ef          	jal	ra,480 <OLEDI2CPutStr>
    1384:	000027b7          	lui	a5,0x2
    1388:	6e478613          	addi	a2,a5,1764 # 26e4 <AARR_GlcdFont_U8+0x438>
    138c:	4685                	li	a3,1
    138e:	04800593          	li	a1,72
    1392:	4509                	li	a0,2
    1394:	8ecff0ef          	jal	ra,480 <OLEDI2CPutStr>
    1398:	8626                	mv	a2,s1
    139a:	4685                	li	a3,1
    139c:	04e00593          	li	a1,78
    13a0:	4509                	li	a0,2
    13a2:	8deff0ef          	jal	ra,480 <OLEDI2CPutStr>
    13a6:	00002637          	lui	a2,0x2
    13aa:	469d                	li	a3,7
    13ac:	6f060613          	addi	a2,a2,1776 # 26f0 <AARR_GlcdFont_U8+0x444>
    13b0:	05400593          	li	a1,84
    13b4:	4509                	li	a0,2
    13b6:	8caff0ef          	jal	ra,480 <OLEDI2CPutStr>
    13ba:	90818793          	addi	a5,gp,-1784 # 20000140 <T>
    13be:	4388                	lw	a0,0(a5)
    13c0:	460d                	li	a2,3
    13c2:	91418593          	addi	a1,gp,-1772 # 2000014c <digitSep>
    13c6:	3b31                	jal	10e2 <DigitSeperation>
    13c8:	00002637          	lui	a2,0x2
    13cc:	6f860593          	addi	a1,a2,1784 # 26f8 <AARR_GlcdFont_U8+0x44c>
    13d0:	4505                	li	a0,1
    13d2:	e8cff0ef          	jal	ra,a5e <UARTDebugPrint>
    13d6:	4589                	li	a1,2
    13d8:	91418513          	addi	a0,gp,-1772 # 2000014c <digitSep>
    13dc:	ec0ff0ef          	jal	ra,a9c <UARTSendBuffer>
    13e0:	000027b7          	lui	a5,0x2
    13e4:	6e478593          	addi	a1,a5,1764 # 26e4 <AARR_GlcdFont_U8+0x438>
    13e8:	4501                	li	a0,0
    13ea:	e74ff0ef          	jal	ra,a5e <UARTDebugPrint>
    13ee:	8526                	mv	a0,s1
    13f0:	4585                	li	a1,1
    13f2:	eaaff0ef          	jal	ra,a9c <UARTSendBuffer>
    13f6:	000025b7          	lui	a1,0x2
    13fa:	70858593          	addi	a1,a1,1800 # 2708 <AARR_GlcdFont_U8+0x45c>
    13fe:	4501                	li	a0,0
    1400:	e5eff0ef          	jal	ra,a5e <UARTDebugPrint>
    1404:	00002637          	lui	a2,0x2
    1408:	46b5                	li	a3,13
    140a:	6f860613          	addi	a2,a2,1784 # 26f8 <AARR_GlcdFont_U8+0x44c>
    140e:	4581                	li	a1,0
    1410:	4511                	li	a0,4
    1412:	86eff0ef          	jal	ra,480 <OLEDI2CPutStr>
    1416:	4689                	li	a3,2
    1418:	91418613          	addi	a2,gp,-1772 # 2000014c <digitSep>
    141c:	04e00593          	li	a1,78
    1420:	4511                	li	a0,4
    1422:	85eff0ef          	jal	ra,480 <OLEDI2CPutStr>
    1426:	000027b7          	lui	a5,0x2
    142a:	6e478613          	addi	a2,a5,1764 # 26e4 <AARR_GlcdFont_U8+0x438>
    142e:	4685                	li	a3,1
    1430:	05a00593          	li	a1,90
    1434:	4511                	li	a0,4
    1436:	84aff0ef          	jal	ra,480 <OLEDI2CPutStr>
    143a:	8626                	mv	a2,s1
    143c:	4685                	li	a3,1
    143e:	06000593          	li	a1,96
    1442:	4511                	li	a0,4
    1444:	83cff0ef          	jal	ra,480 <OLEDI2CPutStr>
    1448:	00002637          	lui	a2,0x2
    144c:	4685                	li	a3,1
    144e:	71460613          	addi	a2,a2,1812 # 2714 <AARR_GlcdFont_U8+0x468>
    1452:	06600593          	li	a1,102
    1456:	4511                	li	a0,4
    1458:	828ff0ef          	jal	ra,480 <OLEDI2CPutStr>
    145c:	90c18793          	addi	a5,gp,-1780 # 20000144 <adcFlag>
    1460:	2394                	lbu	a3,0(a5)
    1462:	4705                	li	a4,1
    1464:	91018493          	addi	s1,gp,-1776 # 20000148 <adcReading>
    1468:	02e69d63          	bne	a3,a4,14a2 <main+0x35a>
    146c:	400126b7          	lui	a3,0x40012
    1470:	40068513          	addi	a0,a3,1024 # 40012400 <__global_pointer$+0x20011bc8>
    1474:	45d1                	li	a1,20
    1476:	217d                	jal	1924 <ADC_GetInjectedConversionValue>
    1478:	00251713          	slli	a4,a0,0x2
    147c:	953a                	add	a0,a0,a4
    147e:	00651713          	slli	a4,a0,0x6
    1482:	06400593          	li	a1,100
    1486:	953a                	add	a0,a0,a4
    1488:	c4dfe0ef          	jal	ra,d4 <__udivsi3>
    148c:	400126b7          	lui	a3,0x40012
    1490:	c088                	sw	a0,0(s1)
    1492:	90c18793          	addi	a5,gp,-1780 # 20000144 <adcFlag>
    1496:	4585                	li	a1,1
    1498:	40068513          	addi	a0,a3,1024 # 40012400 <__global_pointer$+0x20011bc8>
    149c:	00078023          	sb	zero,0(a5)
    14a0:	2ef9                	jal	187e <ADC_SoftwareStartInjectedConvCmd>
    14a2:	4088                	lw	a0,0(s1)
    14a4:	91418593          	addi	a1,gp,-1772 # 2000014c <digitSep>
    14a8:	4611                	li	a2,4
    14aa:	c39ff0ef          	jal	ra,10e2 <DigitSeperation>
    14ae:	000024b7          	lui	s1,0x2
    14b2:	46b5                	li	a3,13
    14b4:	71848613          	addi	a2,s1,1816 # 2718 <AARR_GlcdFont_U8+0x46c>
    14b8:	4581                	li	a1,0
    14ba:	4519                	li	a0,6
    14bc:	fc5fe0ef          	jal	ra,480 <OLEDI2CPutStr>
    14c0:	91418613          	addi	a2,gp,-1772 # 2000014c <digitSep>
    14c4:	4691                	li	a3,4
    14c6:	04e00593          	li	a1,78
    14ca:	4519                	li	a0,6
    14cc:	fb5fe0ef          	jal	ra,480 <OLEDI2CPutStr>
    14d0:	00002637          	lui	a2,0x2
    14d4:	4689                	li	a3,2
    14d6:	72860613          	addi	a2,a2,1832 # 2728 <AARR_GlcdFont_U8+0x47c>
    14da:	06600593          	li	a1,102
    14de:	4519                	li	a0,6
    14e0:	fa1fe0ef          	jal	ra,480 <OLEDI2CPutStr>
    14e4:	71848593          	addi	a1,s1,1816
    14e8:	4505                	li	a0,1
    14ea:	d74ff0ef          	jal	ra,a5e <UARTDebugPrint>
    14ee:	91418513          	addi	a0,gp,-1772 # 2000014c <digitSep>
    14f2:	4591                	li	a1,4
    14f4:	da8ff0ef          	jal	ra,a9c <UARTSendBuffer>
    14f8:	000025b7          	lui	a1,0x2
    14fc:	72c58593          	addi	a1,a1,1836 # 272c <AARR_GlcdFont_U8+0x480>
    1500:	4501                	li	a0,0
    1502:	d5cff0ef          	jal	ra,a5e <UARTDebugPrint>
    1506:	06400513          	li	a0,100
    150a:	555000ef          	jal	ra,225e <Delay_Ms>
    150e:	000025b7          	lui	a1,0x2
    1512:	73458593          	addi	a1,a1,1844 # 2734 <AARR_GlcdFont_U8+0x488>
    1516:	4505                	li	a0,1
    1518:	d46ff0ef          	jal	ra,a5e <UARTDebugPrint>
    151c:	90518413          	addi	s0,gp,-1787 # 2000013d <Rxfinish1>
    1520:	f58ff0ef          	jal	ra,c78 <BlinkLED>
    1524:	201c                	lbu	a5,0(s0)
    1526:	da078ce3          	beqz	a5,12de <main+0x196>
    152a:	000025b7          	lui	a1,0x2
    152e:	74058593          	addi	a1,a1,1856 # 2740 <AARR_GlcdFont_U8+0x494>
    1532:	4505                	li	a0,1
    1534:	d2aff0ef          	jal	ra,a5e <UARTDebugPrint>
    1538:	00040023          	sb	zero,0(s0)
    153c:	b34d                	j	12de <main+0x196>

0000153e <ADC1_IRQHandler>:
    153e:	1171                	addi	sp,sp,-4
    1540:	c022                	sw	s0,0(sp)
    1542:	40012437          	lui	s0,0x40012
    1546:	48000593          	li	a1,1152
    154a:	40040513          	addi	a0,s0,1024 # 40012400 <__global_pointer$+0x20011bc8>
    154e:	2ecd                	jal	1940 <ADC_GetITStatus>
    1550:	4785                	li	a5,1
    1552:	00f51f63          	bne	a0,a5,1570 <ADC1_IRQHandler+0x32>
    1556:	90a18623          	sb	a0,-1780(gp) # 20000144 <adcFlag>
    155a:	45d1                	li	a1,20
    155c:	40040513          	addi	a0,s0,1024
    1560:	26d1                	jal	1924 <ADC_GetInjectedConversionValue>
    1562:	90a1a823          	sw	a0,-1776(gp) # 20000148 <adcReading>
    1566:	48000593          	li	a1,1152
    156a:	40040513          	addi	a0,s0,1024
    156e:	26fd                	jal	195c <ADC_ClearITPendingBit>
    1570:	4402                	lw	s0,0(sp)
    1572:	0111                	addi	sp,sp,4
    1574:	30200073          	mret

00001578 <USART1_IRQHandler>:
    1578:	1171                	addi	sp,sp,-4
    157a:	c022                	sw	s0,0(sp)
    157c:	40014437          	lui	s0,0x40014
    1580:	52500593          	li	a1,1317
    1584:	80040513          	addi	a0,s0,-2048 # 40013800 <__global_pointer$+0x20012fc8>
    1588:	467000ef          	jal	ra,21ee <USART_GetITStatus>
    158c:	c91d                	beqz	a0,15c2 <USART1_IRQHandler+0x4a>
    158e:	80040513          	addi	a0,s0,-2048
    1592:	44b000ef          	jal	ra,21dc <USART_ReceiveData>
    1596:	90418793          	addi	a5,gp,-1788 # 2000013c <RxCnt1>
    159a:	2390                	lbu	a2,0(a5)
    159c:	20000737          	lui	a4,0x20000
    15a0:	03c70713          	addi	a4,a4,60 # 2000003c <RxBuffer1>
    15a4:	00160693          	addi	a3,a2,1
    15a8:	9732                	add	a4,a4,a2
    15aa:	0ff6f693          	andi	a3,a3,255
    15ae:	a308                	sb	a0,0(a4)
    15b0:	a394                	sb	a3,0(a5)
    15b2:	4711                	li	a4,4
    15b4:	00d77763          	bgeu	a4,a3,15c2 <USART1_IRQHandler+0x4a>
    15b8:	00078023          	sb	zero,0(a5)
    15bc:	4705                	li	a4,1
    15be:	90e182a3          	sb	a4,-1787(gp) # 2000013d <Rxfinish1>
    15c2:	4402                	lw	s0,0(sp)
    15c4:	0111                	addi	sp,sp,4
    15c6:	30200073          	mret

000015ca <SystemInit>:
    15ca:	400217b7          	lui	a5,0x40021
    15ce:	4398                	lw	a4,0(a5)
    15d0:	fcff06b7          	lui	a3,0xfcff0
    15d4:	00176713          	ori	a4,a4,1
    15d8:	c398                	sw	a4,0(a5)
    15da:	43d8                	lw	a4,4(a5)
    15dc:	8f75                	and	a4,a4,a3
    15de:	c3d8                	sw	a4,4(a5)
    15e0:	4398                	lw	a4,0(a5)
    15e2:	fef706b7          	lui	a3,0xfef70
    15e6:	16fd                	addi	a3,a3,-1
    15e8:	8f75                	and	a4,a4,a3
    15ea:	c398                	sw	a4,0(a5)
    15ec:	4398                	lw	a4,0(a5)
    15ee:	fffc06b7          	lui	a3,0xfffc0
    15f2:	16fd                	addi	a3,a3,-1
    15f4:	8f75                	and	a4,a4,a3
    15f6:	c398                	sw	a4,0(a5)
    15f8:	43d8                	lw	a4,4(a5)
    15fa:	76c1                	lui	a3,0xffff0
    15fc:	16fd                	addi	a3,a3,-1
    15fe:	8f75                	and	a4,a4,a3
    1600:	c3d8                	sw	a4,4(a5)
    1602:	009f0737          	lui	a4,0x9f0
    1606:	c798                	sw	a4,8(a5)
    1608:	4f98                	lw	a4,24(a5)
    160a:	02076713          	ori	a4,a4,32
    160e:	cf98                	sw	a4,24(a5)
    1610:	40011737          	lui	a4,0x40011
    1614:	40072603          	lw	a2,1024(a4) # 40011400 <__global_pointer$+0x20010bc8>
    1618:	40070593          	addi	a1,a4,1024
    161c:	f0f67613          	andi	a2,a2,-241
    1620:	40c72023          	sw	a2,1024(a4)
    1624:	40072603          	lw	a2,1024(a4)
    1628:	08066613          	ori	a2,a2,128
    162c:	40c72023          	sw	a2,1024(a4)
    1630:	4709                	li	a4,2
    1632:	c998                	sw	a4,16(a1)
    1634:	40022737          	lui	a4,0x40022
    1638:	4310                	lw	a2,0(a4)
    163a:	9a71                	andi	a2,a2,-4
    163c:	c310                	sw	a2,0(a4)
    163e:	4310                	lw	a2,0(a4)
    1640:	00166613          	ori	a2,a2,1
    1644:	c310                	sw	a2,0(a4)
    1646:	43d8                	lw	a4,4(a5)
    1648:	c3d8                	sw	a4,4(a5)
    164a:	43d8                	lw	a4,4(a5)
    164c:	8ef9                	and	a3,a3,a4
    164e:	c3d4                	sw	a3,4(a5)
    1650:	43d8                	lw	a4,4(a5)
    1652:	010006b7          	lui	a3,0x1000
    1656:	c3d8                	sw	a4,4(a5)
    1658:	4398                	lw	a4,0(a5)
    165a:	8f55                	or	a4,a4,a3
    165c:	c398                	sw	a4,0(a5)
    165e:	4398                	lw	a4,0(a5)
    1660:	00671693          	slli	a3,a4,0x6
    1664:	fe06dde3          	bgez	a3,165e <SystemInit+0x94>
    1668:	43d8                	lw	a4,4(a5)
    166a:	400216b7          	lui	a3,0x40021
    166e:	9b71                	andi	a4,a4,-4
    1670:	c3d8                	sw	a4,4(a5)
    1672:	43d8                	lw	a4,4(a5)
    1674:	00276713          	ori	a4,a4,2
    1678:	c3d8                	sw	a4,4(a5)
    167a:	4721                	li	a4,8
    167c:	42dc                	lw	a5,4(a3)
    167e:	8bb1                	andi	a5,a5,12
    1680:	fee79ee3          	bne	a5,a4,167c <SystemInit+0xb2>
    1684:	8082                	ret

00001686 <SystemCoreClockUpdate>:
    1686:	a1bfe2ef          	jal	t0,a0 <__riscv_save_0>
    168a:	40021737          	lui	a4,0x40021
    168e:	435c                	lw	a5,4(a4)
    1690:	20000437          	lui	s0,0x20000
    1694:	4691                	li	a3,4
    1696:	8bb1                	andi	a5,a5,12
    1698:	01040413          	addi	s0,s0,16 # 20000010 <SystemCoreClock>
    169c:	00d78563          	beq	a5,a3,16a6 <SystemCoreClockUpdate+0x20>
    16a0:	46a1                	li	a3,8
    16a2:	04d78263          	beq	a5,a3,16e6 <SystemCoreClockUpdate+0x60>
    16a6:	016e37b7          	lui	a5,0x16e3
    16aa:	60078793          	addi	a5,a5,1536 # 16e3600 <_data_lma+0x16e0ea8>
    16ae:	c01c                	sw	a5,0(s0)
    16b0:	400216b7          	lui	a3,0x40021
    16b4:	42dc                	lw	a5,4(a3)
    16b6:	4008                	lw	a0,0(s0)
    16b8:	8391                	srli	a5,a5,0x4
    16ba:	00f7f713          	andi	a4,a5,15
    16be:	200007b7          	lui	a5,0x20000
    16c2:	00078793          	mv	a5,a5
    16c6:	97ba                	add	a5,a5,a4
    16c8:	238c                	lbu	a1,0(a5)
    16ca:	42dc                	lw	a5,4(a3)
    16cc:	0ff5f593          	andi	a1,a1,255
    16d0:	0807f793          	andi	a5,a5,128
    16d4:	00b55733          	srl	a4,a0,a1
    16d8:	e781                	bnez	a5,16e0 <SystemCoreClockUpdate+0x5a>
    16da:	9fbfe0ef          	jal	ra,d4 <__udivsi3>
    16de:	872a                	mv	a4,a0
    16e0:	c018                	sw	a4,0(s0)
    16e2:	9c9fe06f          	j	aa <__riscv_restore_0>
    16e6:	435c                	lw	a5,4(a4)
    16e8:	02dc77b7          	lui	a5,0x2dc7
    16ec:	c0078793          	addi	a5,a5,-1024 # 2dc6c00 <_data_lma+0x2dc44a8>
    16f0:	bf7d                	j	16ae <SystemCoreClockUpdate+0x28>
    16f2:	a001                	j	16f2 <SystemCoreClockUpdate+0x6c>
    16f4:	a001                	j	16f4 <SystemCoreClockUpdate+0x6e>

000016f6 <SysTick_Handler>:
    16f6:	a001                	j	16f6 <SysTick_Handler>

000016f8 <SW_Handler>:
    16f8:	a001                	j	16f8 <SW_Handler>

000016fa <WWDG_IRQHandler>:
    16fa:	a001                	j	16fa <WWDG_IRQHandler>

000016fc <PVD_IRQHandler>:
    16fc:	a001                	j	16fc <PVD_IRQHandler>

000016fe <FLASH_IRQHandler>:
    16fe:	a001                	j	16fe <FLASH_IRQHandler>

00001700 <RCC_IRQHandler>:
    1700:	a001                	j	1700 <RCC_IRQHandler>
    1702:	a001                	j	1702 <RCC_IRQHandler+0x2>

00001704 <AWU_IRQHandler>:
    1704:	a001                	j	1704 <AWU_IRQHandler>

00001706 <DMA1_Channel1_IRQHandler>:
    1706:	a001                	j	1706 <DMA1_Channel1_IRQHandler>

00001708 <DMA1_Channel2_IRQHandler>:
    1708:	a001                	j	1708 <DMA1_Channel2_IRQHandler>

0000170a <DMA1_Channel3_IRQHandler>:
    170a:	a001                	j	170a <DMA1_Channel3_IRQHandler>

0000170c <DMA1_Channel4_IRQHandler>:
    170c:	a001                	j	170c <DMA1_Channel4_IRQHandler>

0000170e <DMA1_Channel5_IRQHandler>:
    170e:	a001                	j	170e <DMA1_Channel5_IRQHandler>

00001710 <DMA1_Channel6_IRQHandler>:
    1710:	a001                	j	1710 <DMA1_Channel6_IRQHandler>

00001712 <DMA1_Channel7_IRQHandler>:
    1712:	a001                	j	1712 <DMA1_Channel7_IRQHandler>
    1714:	a001                	j	1714 <DMA1_Channel7_IRQHandler+0x2>

00001716 <I2C1_EV_IRQHandler>:
    1716:	a001                	j	1716 <I2C1_EV_IRQHandler>

00001718 <I2C1_ER_IRQHandler>:
    1718:	a001                	j	1718 <I2C1_ER_IRQHandler>
    171a:	a001                	j	171a <I2C1_ER_IRQHandler+0x2>

0000171c <SPI1_IRQHandler>:
    171c:	a001                	j	171c <SPI1_IRQHandler>

0000171e <TIM1_BRK_IRQHandler>:
    171e:	a001                	j	171e <TIM1_BRK_IRQHandler>

00001720 <TIM1_UP_IRQHandler>:
    1720:	a001                	j	1720 <TIM1_UP_IRQHandler>

00001722 <TIM1_TRG_COM_IRQHandler>:
    1722:	a001                	j	1722 <TIM1_TRG_COM_IRQHandler>

00001724 <TIM1_CC_IRQHandler>:
    1724:	a001                	j	1724 <TIM1_CC_IRQHandler>

00001726 <TIM2_IRQHandler>:
    1726:	a001                	j	1726 <TIM2_IRQHandler>

00001728 <handle_reset>:
    1728:	1ffff197          	auipc	gp,0x1ffff
    172c:	11018193          	addi	gp,gp,272 # 20000838 <__global_pointer$>
    1730:	fc818113          	addi	sp,gp,-56 # 20000800 <_eusrstack>
    1734:	00001517          	auipc	a0,0x1
    1738:	02450513          	addi	a0,a0,36 # 2758 <_data_lma>
    173c:	1ffff597          	auipc	a1,0x1ffff
    1740:	8c458593          	addi	a1,a1,-1852 # 20000000 <_data_vma>
    1744:	1ffff617          	auipc	a2,0x1ffff
    1748:	8f460613          	addi	a2,a2,-1804 # 20000038 <_edata>
    174c:	00c5fa63          	bgeu	a1,a2,1760 <handle_reset+0x38>
    1750:	00052283          	lw	t0,0(a0)
    1754:	0055a023          	sw	t0,0(a1)
    1758:	0511                	addi	a0,a0,4
    175a:	0591                	addi	a1,a1,4
    175c:	fec5eae3          	bltu	a1,a2,1750 <handle_reset+0x28>
    1760:	1ffff517          	auipc	a0,0x1ffff
    1764:	8d850513          	addi	a0,a0,-1832 # 20000038 <_edata>
    1768:	92018593          	addi	a1,gp,-1760 # 20000158 <_ebss>
    176c:	00b57763          	bgeu	a0,a1,177a <handle_reset+0x52>
    1770:	00052023          	sw	zero,0(a0)
    1774:	0511                	addi	a0,a0,4
    1776:	feb56de3          	bltu	a0,a1,1770 <handle_reset+0x48>
    177a:	08000293          	li	t0,128
    177e:	30029073          	csrw	mstatus,t0
    1782:	428d                	li	t0,3
    1784:	80429073          	csrw	0x804,t0
    1788:	fffff297          	auipc	t0,0xfffff
    178c:	87828293          	addi	t0,t0,-1928 # 0 <_sinit>
    1790:	0032e293          	ori	t0,t0,3
    1794:	30529073          	csrw	mtvec,t0
    1798:	e33ff0ef          	jal	ra,15ca <SystemInit>
    179c:	00000297          	auipc	t0,0x0
    17a0:	9ac28293          	addi	t0,t0,-1620 # 1148 <main>
    17a4:	34129073          	csrw	mepc,t0
    17a8:	30200073          	mret

000017ac <ADC_DeInit>:
    17ac:	400127b7          	lui	a5,0x40012
    17b0:	40078793          	addi	a5,a5,1024 # 40012400 <__global_pointer$+0x20011bc8>
    17b4:	00f51e63          	bne	a0,a5,17d0 <ADC_DeInit+0x24>
    17b8:	8e9fe2ef          	jal	t0,a0 <__riscv_save_0>
    17bc:	4585                	li	a1,1
    17be:	20000513          	li	a0,512
    17c2:	2d41                	jal	1e52 <RCC_APB2PeriphResetCmd>
    17c4:	4581                	li	a1,0
    17c6:	20000513          	li	a0,512
    17ca:	2561                	jal	1e52 <RCC_APB2PeriphResetCmd>
    17cc:	8dffe06f          	j	aa <__riscv_restore_0>
    17d0:	8082                	ret

000017d2 <ADC_Init>:
    17d2:	415c                	lw	a5,4(a0)
    17d4:	fff10737          	lui	a4,0xfff10
    17d8:	eff70713          	addi	a4,a4,-257 # fff0feff <__global_pointer$+0xdff0f6c7>
    17dc:	8f7d                	and	a4,a4,a5
    17de:	41dc                	lw	a5,4(a1)
    17e0:	4194                	lw	a3,0(a1)
    17e2:	07a2                	slli	a5,a5,0x8
    17e4:	8fd5                	or	a5,a5,a3
    17e6:	8fd9                	or	a5,a5,a4
    17e8:	c15c                	sw	a5,4(a0)
    17ea:	451c                	lw	a5,8(a0)
    17ec:	fff1f737          	lui	a4,0xfff1f
    17f0:	7fd70713          	addi	a4,a4,2045 # fff1f7fd <__global_pointer$+0xdff1efc5>
    17f4:	45d4                	lw	a3,12(a1)
    17f6:	8f7d                	and	a4,a4,a5
    17f8:	499c                	lw	a5,16(a1)
    17fa:	8fd5                	or	a5,a5,a3
    17fc:	4594                	lw	a3,8(a1)
    17fe:	0686                	slli	a3,a3,0x1
    1800:	8fd5                	or	a5,a5,a3
    1802:	8fd9                	or	a5,a5,a4
    1804:	c51c                	sw	a5,8(a0)
    1806:	555c                	lw	a5,44(a0)
    1808:	ff100737          	lui	a4,0xff100
    180c:	177d                	addi	a4,a4,-1
    180e:	8f7d                	and	a4,a4,a5
    1810:	29dc                	lbu	a5,20(a1)
    1812:	17fd                	addi	a5,a5,-1
    1814:	0ff7f793          	andi	a5,a5,255
    1818:	07d2                	slli	a5,a5,0x14
    181a:	8fd9                	or	a5,a5,a4
    181c:	d55c                	sw	a5,44(a0)
    181e:	8082                	ret

00001820 <ADC_Cmd>:
    1820:	451c                	lw	a5,8(a0)
    1822:	c589                	beqz	a1,182c <ADC_Cmd+0xc>
    1824:	0017e793          	ori	a5,a5,1
    1828:	c51c                	sw	a5,8(a0)
    182a:	8082                	ret
    182c:	9bf9                	andi	a5,a5,-2
    182e:	bfed                	j	1828 <ADC_Cmd+0x8>

00001830 <ADC_ITConfig>:
    1830:	415c                	lw	a5,4(a0)
    1832:	0ff5f593          	andi	a1,a1,255
    1836:	c601                	beqz	a2,183e <ADC_ITConfig+0xe>
    1838:	8ddd                	or	a1,a1,a5
    183a:	c14c                	sw	a1,4(a0)
    183c:	8082                	ret
    183e:	fff5c593          	not	a1,a1
    1842:	8dfd                	and	a1,a1,a5
    1844:	bfdd                	j	183a <ADC_ITConfig+0xa>

00001846 <ADC_ResetCalibration>:
    1846:	451c                	lw	a5,8(a0)
    1848:	0087e793          	ori	a5,a5,8
    184c:	c51c                	sw	a5,8(a0)
    184e:	8082                	ret

00001850 <ADC_GetResetCalibrationStatus>:
    1850:	4508                	lw	a0,8(a0)
    1852:	810d                	srli	a0,a0,0x3
    1854:	8905                	andi	a0,a0,1
    1856:	8082                	ret

00001858 <ADC_StartCalibration>:
    1858:	451c                	lw	a5,8(a0)
    185a:	0047e793          	ori	a5,a5,4
    185e:	c51c                	sw	a5,8(a0)
    1860:	8082                	ret

00001862 <ADC_GetCalibrationStatus>:
    1862:	4508                	lw	a0,8(a0)
    1864:	8109                	srli	a0,a0,0x2
    1866:	8905                	andi	a0,a0,1
    1868:	8082                	ret

0000186a <ADC_ExternalTrigInjectedConvCmd>:
    186a:	451c                	lw	a5,8(a0)
    186c:	c589                	beqz	a1,1876 <ADC_ExternalTrigInjectedConvCmd+0xc>
    186e:	6721                	lui	a4,0x8
    1870:	8fd9                	or	a5,a5,a4
    1872:	c51c                	sw	a5,8(a0)
    1874:	8082                	ret
    1876:	7761                	lui	a4,0xffff8
    1878:	177d                	addi	a4,a4,-1
    187a:	8ff9                	and	a5,a5,a4
    187c:	bfdd                	j	1872 <ADC_ExternalTrigInjectedConvCmd+0x8>

0000187e <ADC_SoftwareStartInjectedConvCmd>:
    187e:	451c                	lw	a5,8(a0)
    1880:	c591                	beqz	a1,188c <ADC_SoftwareStartInjectedConvCmd+0xe>
    1882:	00208737          	lui	a4,0x208
    1886:	8fd9                	or	a5,a5,a4
    1888:	c51c                	sw	a5,8(a0)
    188a:	8082                	ret
    188c:	ffdf8737          	lui	a4,0xffdf8
    1890:	177d                	addi	a4,a4,-1
    1892:	8ff9                	and	a5,a5,a4
    1894:	bfd5                	j	1888 <ADC_SoftwareStartInjectedConvCmd+0xa>

00001896 <ADC_InjectedChannelConfig>:
    1896:	47a5                	li	a5,9
    1898:	04b7fb63          	bgeu	a5,a1,18ee <ADC_InjectedChannelConfig+0x58>
    189c:	ff658713          	addi	a4,a1,-10
    18a0:	00171793          	slli	a5,a4,0x1
    18a4:	00c52283          	lw	t0,12(a0)
    18a8:	97ba                	add	a5,a5,a4
    18aa:	431d                	li	t1,7
    18ac:	00f31333          	sll	t1,t1,a5
    18b0:	fff34313          	not	t1,t1
    18b4:	00537333          	and	t1,t1,t0
    18b8:	00f697b3          	sll	a5,a3,a5
    18bc:	0067e7b3          	or	a5,a5,t1
    18c0:	c55c                	sw	a5,12(a0)
    18c2:	5d18                	lw	a4,56(a0)
    18c4:	0609                	addi	a2,a2,2
    18c6:	01475793          	srli	a5,a4,0x14
    18ca:	8b8d                	andi	a5,a5,3
    18cc:	8e1d                	sub	a2,a2,a5
    18ce:	0ff67613          	andi	a2,a2,255
    18d2:	00261793          	slli	a5,a2,0x2
    18d6:	963e                	add	a2,a2,a5
    18d8:	47fd                	li	a5,31
    18da:	00c797b3          	sll	a5,a5,a2
    18de:	fff7c793          	not	a5,a5
    18e2:	8ff9                	and	a5,a5,a4
    18e4:	00c595b3          	sll	a1,a1,a2
    18e8:	8ddd                	or	a1,a1,a5
    18ea:	dd0c                	sw	a1,56(a0)
    18ec:	8082                	ret
    18ee:	00159793          	slli	a5,a1,0x1
    18f2:	01052303          	lw	t1,16(a0)
    18f6:	97ae                	add	a5,a5,a1
    18f8:	471d                	li	a4,7
    18fa:	00f71733          	sll	a4,a4,a5
    18fe:	fff74713          	not	a4,a4
    1902:	00677733          	and	a4,a4,t1
    1906:	00f697b3          	sll	a5,a3,a5
    190a:	8f5d                	or	a4,a4,a5
    190c:	c918                	sw	a4,16(a0)
    190e:	bf55                	j	18c2 <ADC_InjectedChannelConfig+0x2c>

00001910 <ADC_InjectedSequencerLengthConfig>:
    1910:	5d1c                	lw	a5,56(a0)
    1912:	ffd00737          	lui	a4,0xffd00
    1916:	177d                	addi	a4,a4,-1
    1918:	15fd                	addi	a1,a1,-1
    191a:	8ff9                	and	a5,a5,a4
    191c:	05d2                	slli	a1,a1,0x14
    191e:	8ddd                	or	a1,a1,a5
    1920:	dd0c                	sw	a1,56(a0)
    1922:	8082                	ret

00001924 <ADC_GetInjectedConversionValue>:
    1924:	1171                	addi	sp,sp,-4
    1926:	c002                	sw	zero,0(sp)
    1928:	c02a                	sw	a0,0(sp)
    192a:	4782                	lw	a5,0(sp)
    192c:	02878793          	addi	a5,a5,40
    1930:	95be                	add	a1,a1,a5
    1932:	c02e                	sw	a1,0(sp)
    1934:	4782                	lw	a5,0(sp)
    1936:	4388                	lw	a0,0(a5)
    1938:	0111                	addi	sp,sp,4
    193a:	0542                	slli	a0,a0,0x10
    193c:	8141                	srli	a0,a0,0x10
    193e:	8082                	ret

00001940 <ADC_GetITStatus>:
    1940:	4158                	lw	a4,4(a0)
    1942:	4114                	lw	a3,0(a0)
    1944:	0085d793          	srli	a5,a1,0x8
    1948:	8ff5                	and	a5,a5,a3
    194a:	c799                	beqz	a5,1958 <ADC_GetITStatus+0x18>
    194c:	0ff5f513          	andi	a0,a1,255
    1950:	8d79                	and	a0,a0,a4
    1952:	00a03533          	snez	a0,a0
    1956:	8082                	ret
    1958:	4501                	li	a0,0
    195a:	8082                	ret

0000195c <ADC_ClearITPendingBit>:
    195c:	81a1                	srli	a1,a1,0x8
    195e:	fff5c593          	not	a1,a1
    1962:	c10c                	sw	a1,0(a0)
    1964:	8082                	ret

00001966 <ADC_Calibration_Vol>:
    1966:	415c                	lw	a5,4(a0)
    1968:	fa000737          	lui	a4,0xfa000
    196c:	177d                	addi	a4,a4,-1
    196e:	8ff9                	and	a5,a5,a4
    1970:	c15c                	sw	a5,4(a0)
    1972:	415c                	lw	a5,4(a0)
    1974:	8ddd                	or	a1,a1,a5
    1976:	c14c                	sw	a1,4(a0)
    1978:	8082                	ret

0000197a <EXTI_Init>:
    197a:	4158                	lw	a4,4(a0)
    197c:	00052303          	lw	t1,0(a0)
    1980:	454c                	lw	a1,12(a0)
    1982:	40010637          	lui	a2,0x40010
    1986:	40060793          	addi	a5,a2,1024 # 40010400 <__global_pointer$+0x2000fbc8>
    198a:	973e                	add	a4,a4,a5
    198c:	fff34693          	not	a3,t1
    1990:	c5b1                	beqz	a1,19dc <EXTI_Init+0x62>
    1992:	40062583          	lw	a1,1024(a2)
    1996:	8df5                	and	a1,a1,a3
    1998:	40b62023          	sw	a1,1024(a2)
    199c:	43d0                	lw	a2,4(a5)
    199e:	8ef1                	and	a3,a3,a2
    19a0:	c3d4                	sw	a3,4(a5)
    19a2:	4314                	lw	a3,0(a4)
    19a4:	0066e6b3          	or	a3,a3,t1
    19a8:	c314                	sw	a3,0(a4)
    19aa:	4118                	lw	a4,0(a0)
    19ac:	4790                	lw	a2,8(a5)
    19ae:	fff74693          	not	a3,a4
    19b2:	8e75                	and	a2,a2,a3
    19b4:	c790                	sw	a2,8(a5)
    19b6:	47d0                	lw	a2,12(a5)
    19b8:	8ef1                	and	a3,a3,a2
    19ba:	c7d4                	sw	a3,12(a5)
    19bc:	4514                	lw	a3,8(a0)
    19be:	4641                	li	a2,16
    19c0:	00c69963          	bne	a3,a2,19d2 <EXTI_Init+0x58>
    19c4:	4794                	lw	a3,8(a5)
    19c6:	8ed9                	or	a3,a3,a4
    19c8:	c794                	sw	a3,8(a5)
    19ca:	47d4                	lw	a3,12(a5)
    19cc:	8f55                	or	a4,a4,a3
    19ce:	c7d8                	sw	a4,12(a5)
    19d0:	8082                	ret
    19d2:	97b6                	add	a5,a5,a3
    19d4:	4394                	lw	a3,0(a5)
    19d6:	8f55                	or	a4,a4,a3
    19d8:	c398                	sw	a4,0(a5)
    19da:	8082                	ret
    19dc:	431c                	lw	a5,0(a4)
    19de:	8ff5                	and	a5,a5,a3
    19e0:	c31c                	sw	a5,0(a4)
    19e2:	8082                	ret

000019e4 <EXTI_GetITStatus>:
    19e4:	400107b7          	lui	a5,0x40010
    19e8:	40078713          	addi	a4,a5,1024 # 40010400 <__global_pointer$+0x2000fbc8>
    19ec:	4007a783          	lw	a5,1024(a5)
    19f0:	4b58                	lw	a4,20(a4)
    19f2:	8f69                	and	a4,a4,a0
    19f4:	c709                	beqz	a4,19fe <EXTI_GetITStatus+0x1a>
    19f6:	8d7d                	and	a0,a0,a5
    19f8:	00a03533          	snez	a0,a0
    19fc:	8082                	ret
    19fe:	4501                	li	a0,0
    1a00:	8082                	ret

00001a02 <EXTI_ClearITPendingBit>:
    1a02:	400107b7          	lui	a5,0x40010
    1a06:	40a7aa23          	sw	a0,1044(a5) # 40010414 <__global_pointer$+0x2000fbdc>
    1a0a:	8082                	ret

00001a0c <GPIO_Init>:
    1a0c:	459c                	lw	a5,8(a1)
    1a0e:	1161                	addi	sp,sp,-8
    1a10:	c222                	sw	s0,4(sp)
    1a12:	c026                	sw	s1,0(sp)
    1a14:	0107f713          	andi	a4,a5,16
    1a18:	00f7f313          	andi	t1,a5,15
    1a1c:	c701                	beqz	a4,1a24 <GPIO_Init+0x18>
    1a1e:	41d8                	lw	a4,4(a1)
    1a20:	00e36333          	or	t1,t1,a4
    1a24:	2192                	lhu	a2,0(a1)
    1a26:	0ff67713          	andi	a4,a2,255
    1a2a:	c729                	beqz	a4,1a74 <GPIO_Init+0x68>
    1a2c:	00052383          	lw	t2,0(a0)
    1a30:	4701                	li	a4,0
    1a32:	02800413          	li	s0,40
    1a36:	04800493          	li	s1,72
    1a3a:	4685                	li	a3,1
    1a3c:	00e695b3          	sll	a1,a3,a4
    1a40:	00b676b3          	and	a3,a2,a1
    1a44:	02d59263          	bne	a1,a3,1a68 <GPIO_Init+0x5c>
    1a48:	00271293          	slli	t0,a4,0x2
    1a4c:	46bd                	li	a3,15
    1a4e:	005696b3          	sll	a3,a3,t0
    1a52:	fff6c693          	not	a3,a3
    1a56:	0076f3b3          	and	t2,a3,t2
    1a5a:	005312b3          	sll	t0,t1,t0
    1a5e:	0072e3b3          	or	t2,t0,t2
    1a62:	06879763          	bne	a5,s0,1ad0 <GPIO_Init+0xc4>
    1a66:	c94c                	sw	a1,20(a0)
    1a68:	0705                	addi	a4,a4,1
    1a6a:	46a1                	li	a3,8
    1a6c:	fcd717e3          	bne	a4,a3,1a3a <GPIO_Init+0x2e>
    1a70:	00752023          	sw	t2,0(a0)
    1a74:	0ff00713          	li	a4,255
    1a78:	04c77863          	bgeu	a4,a2,1ac8 <GPIO_Init+0xbc>
    1a7c:	00452383          	lw	t2,4(a0)
    1a80:	46a1                	li	a3,8
    1a82:	02800413          	li	s0,40
    1a86:	04800493          	li	s1,72
    1a8a:	4705                	li	a4,1
    1a8c:	00d712b3          	sll	t0,a4,a3
    1a90:	00567733          	and	a4,a2,t0
    1a94:	02e29463          	bne	t0,a4,1abc <GPIO_Init+0xb0>
    1a98:	00269713          	slli	a4,a3,0x2
    1a9c:	1701                	addi	a4,a4,-32
    1a9e:	45bd                	li	a1,15
    1aa0:	00e595b3          	sll	a1,a1,a4
    1aa4:	fff5c593          	not	a1,a1
    1aa8:	0075f3b3          	and	t2,a1,t2
    1aac:	00e31733          	sll	a4,t1,a4
    1ab0:	007763b3          	or	t2,a4,t2
    1ab4:	02879263          	bne	a5,s0,1ad8 <GPIO_Init+0xcc>
    1ab8:	00552a23          	sw	t0,20(a0)
    1abc:	0685                	addi	a3,a3,1
    1abe:	4741                	li	a4,16
    1ac0:	fce695e3          	bne	a3,a4,1a8a <GPIO_Init+0x7e>
    1ac4:	00752223          	sw	t2,4(a0)
    1ac8:	4412                	lw	s0,4(sp)
    1aca:	4482                	lw	s1,0(sp)
    1acc:	0121                	addi	sp,sp,8
    1ace:	8082                	ret
    1ad0:	f8979ce3          	bne	a5,s1,1a68 <GPIO_Init+0x5c>
    1ad4:	c90c                	sw	a1,16(a0)
    1ad6:	bf49                	j	1a68 <GPIO_Init+0x5c>
    1ad8:	fe9792e3          	bne	a5,s1,1abc <GPIO_Init+0xb0>
    1adc:	00552823          	sw	t0,16(a0)
    1ae0:	bff1                	j	1abc <GPIO_Init+0xb0>

00001ae2 <GPIO_SetBits>:
    1ae2:	c90c                	sw	a1,16(a0)
    1ae4:	8082                	ret

00001ae6 <GPIO_ResetBits>:
    1ae6:	c94c                	sw	a1,20(a0)
    1ae8:	8082                	ret

00001aea <GPIO_EXTILineConfig>:
    1aea:	40010737          	lui	a4,0x40010
    1aee:	4714                	lw	a3,8(a4)
    1af0:	0586                	slli	a1,a1,0x1
    1af2:	478d                	li	a5,3
    1af4:	00b797b3          	sll	a5,a5,a1
    1af8:	fff7c793          	not	a5,a5
    1afc:	8ff5                	and	a5,a5,a3
    1afe:	c71c                	sw	a5,8(a4)
    1b00:	471c                	lw	a5,8(a4)
    1b02:	00b515b3          	sll	a1,a0,a1
    1b06:	8ddd                	or	a1,a1,a5
    1b08:	c70c                	sw	a1,8(a4)
    1b0a:	8082                	ret

00001b0c <I2C_Init>:
    1b0c:	d94fe2ef          	jal	t0,a0 <__riscv_save_0>
    1b10:	1111                	addi	sp,sp,-28
    1b12:	2146                	lhu	s1,4(a0)
    1b14:	842a                	mv	s0,a0
    1b16:	0028                	addi	a0,sp,8
    1b18:	c02e                	sw	a1,0(sp)
    1b1a:	2485                	jal	1d7a <RCC_GetClocksFreq>
    1b1c:	46c2                	lw	a3,16(sp)
    1b1e:	04c2                	slli	s1,s1,0x10
    1b20:	80c1                	srli	s1,s1,0x10
    1b22:	fc04f493          	andi	s1,s1,-64
    1b26:	000f45b7          	lui	a1,0xf4
    1b2a:	24058593          	addi	a1,a1,576 # f4240 <_data_lma+0xf1ae8>
    1b2e:	8536                	mv	a0,a3
    1b30:	04c2                	slli	s1,s1,0x10
    1b32:	c236                	sw	a3,4(sp)
    1b34:	80c1                	srli	s1,s1,0x10
    1b36:	d9efe0ef          	jal	ra,d4 <__udivsi3>
    1b3a:	8d45                	or	a0,a0,s1
    1b3c:	0542                	slli	a0,a0,0x10
    1b3e:	8141                	srli	a0,a0,0x10
    1b40:	a04a                	sh	a0,4(s0)
    1b42:	201e                	lhu	a5,0(s0)
    1b44:	4692                	lw	a3,4(sp)
    1b46:	07c2                	slli	a5,a5,0x10
    1b48:	83c1                	srli	a5,a5,0x10
    1b4a:	9bf9                	andi	a5,a5,-2
    1b4c:	07c2                	slli	a5,a5,0x10
    1b4e:	83c1                	srli	a5,a5,0x10
    1b50:	a01e                	sh	a5,0(s0)
    1b52:	4782                	lw	a5,0(sp)
    1b54:	4390                	lw	a2,0(a5)
    1b56:	67e1                	lui	a5,0x18
    1b58:	6a078793          	addi	a5,a5,1696 # 186a0 <_data_lma+0x15f48>
    1b5c:	00161593          	slli	a1,a2,0x1
    1b60:	04c7e663          	bltu	a5,a2,1bac <I2C_Init+0xa0>
    1b64:	8536                	mv	a0,a3
    1b66:	d6efe0ef          	jal	ra,d4 <__udivsi3>
    1b6a:	87aa                	mv	a5,a0
    1b6c:	0542                	slli	a0,a0,0x10
    1b6e:	8141                	srli	a0,a0,0x10
    1b70:	4691                	li	a3,4
    1b72:	00d57363          	bgeu	a0,a3,1b78 <I2C_Init+0x6c>
    1b76:	4791                	li	a5,4
    1b78:	01079513          	slli	a0,a5,0x10
    1b7c:	8141                	srli	a0,a0,0x10
    1b7e:	ac4a                	sh	a0,28(s0)
    1b80:	201e                	lhu	a5,0(s0)
    1b82:	4702                	lw	a4,0(sp)
    1b84:	0017e793          	ori	a5,a5,1
    1b88:	a01e                	sh	a5,0(s0)
    1b8a:	201e                	lhu	a5,0(s0)
    1b8c:	2356                	lhu	a3,4(a4)
    1b8e:	2732                	lhu	a2,10(a4)
    1b90:	07c2                	slli	a5,a5,0x10
    1b92:	83c1                	srli	a5,a5,0x10
    1b94:	8ed1                	or	a3,a3,a2
    1b96:	bf57f793          	andi	a5,a5,-1035
    1b9a:	8fd5                	or	a5,a5,a3
    1b9c:	a01e                	sh	a5,0(s0)
    1b9e:	2716                	lhu	a3,8(a4)
    1ba0:	275e                	lhu	a5,12(a4)
    1ba2:	8fd5                	or	a5,a5,a3
    1ba4:	a41e                	sh	a5,8(s0)
    1ba6:	0171                	addi	sp,sp,28
    1ba8:	d02fe06f          	j	aa <__riscv_restore_0>
    1bac:	4782                	lw	a5,0(sp)
    1bae:	23ea                	lhu	a0,6(a5)
    1bb0:	67b1                	lui	a5,0xc
    1bb2:	17fd                	addi	a5,a5,-1
    1bb4:	02f51063          	bne	a0,a5,1bd4 <I2C_Init+0xc8>
    1bb8:	95b2                	add	a1,a1,a2
    1bba:	8536                	mv	a0,a3
    1bbc:	d18fe0ef          	jal	ra,d4 <__udivsi3>
    1bc0:	0542                	slli	a0,a0,0x10
    1bc2:	8141                	srli	a0,a0,0x10
    1bc4:	01451793          	slli	a5,a0,0x14
    1bc8:	e399                	bnez	a5,1bce <I2C_Init+0xc2>
    1bca:	00156513          	ori	a0,a0,1
    1bce:	67a1                	lui	a5,0x8
    1bd0:	8d5d                	or	a0,a0,a5
    1bd2:	b775                	j	1b7e <I2C_Init+0x72>
    1bd4:	00c587b3          	add	a5,a1,a2
    1bd8:	078e                	slli	a5,a5,0x3
    1bda:	00c785b3          	add	a1,a5,a2
    1bde:	8536                	mv	a0,a3
    1be0:	cf4fe0ef          	jal	ra,d4 <__udivsi3>
    1be4:	0542                	slli	a0,a0,0x10
    1be6:	8141                	srli	a0,a0,0x10
    1be8:	6791                	lui	a5,0x4
    1bea:	8d5d                	or	a0,a0,a5
    1bec:	bfe1                	j	1bc4 <I2C_Init+0xb8>

00001bee <I2C_Cmd>:
    1bee:	211e                	lhu	a5,0(a0)
    1bf0:	c589                	beqz	a1,1bfa <I2C_Cmd+0xc>
    1bf2:	0017e793          	ori	a5,a5,1
    1bf6:	a11e                	sh	a5,0(a0)
    1bf8:	8082                	ret
    1bfa:	07c2                	slli	a5,a5,0x10
    1bfc:	83c1                	srli	a5,a5,0x10
    1bfe:	9bf9                	andi	a5,a5,-2
    1c00:	07c2                	slli	a5,a5,0x10
    1c02:	83c1                	srli	a5,a5,0x10
    1c04:	bfcd                	j	1bf6 <I2C_Cmd+0x8>

00001c06 <I2C_GenerateSTART>:
    1c06:	211e                	lhu	a5,0(a0)
    1c08:	c589                	beqz	a1,1c12 <I2C_GenerateSTART+0xc>
    1c0a:	1007e793          	ori	a5,a5,256
    1c0e:	a11e                	sh	a5,0(a0)
    1c10:	8082                	ret
    1c12:	07c2                	slli	a5,a5,0x10
    1c14:	83c1                	srli	a5,a5,0x10
    1c16:	eff7f793          	andi	a5,a5,-257
    1c1a:	07c2                	slli	a5,a5,0x10
    1c1c:	83c1                	srli	a5,a5,0x10
    1c1e:	bfc5                	j	1c0e <I2C_GenerateSTART+0x8>

00001c20 <I2C_GenerateSTOP>:
    1c20:	211e                	lhu	a5,0(a0)
    1c22:	c589                	beqz	a1,1c2c <I2C_GenerateSTOP+0xc>
    1c24:	2007e793          	ori	a5,a5,512
    1c28:	a11e                	sh	a5,0(a0)
    1c2a:	8082                	ret
    1c2c:	07c2                	slli	a5,a5,0x10
    1c2e:	83c1                	srli	a5,a5,0x10
    1c30:	dff7f793          	andi	a5,a5,-513
    1c34:	07c2                	slli	a5,a5,0x10
    1c36:	83c1                	srli	a5,a5,0x10
    1c38:	bfc5                	j	1c28 <I2C_GenerateSTOP+0x8>

00001c3a <I2C_AcknowledgeConfig>:
    1c3a:	211e                	lhu	a5,0(a0)
    1c3c:	c589                	beqz	a1,1c46 <I2C_AcknowledgeConfig+0xc>
    1c3e:	4007e793          	ori	a5,a5,1024
    1c42:	a11e                	sh	a5,0(a0)
    1c44:	8082                	ret
    1c46:	07c2                	slli	a5,a5,0x10
    1c48:	83c1                	srli	a5,a5,0x10
    1c4a:	bff7f793          	andi	a5,a5,-1025
    1c4e:	07c2                	slli	a5,a5,0x10
    1c50:	83c1                	srli	a5,a5,0x10
    1c52:	bfc5                	j	1c42 <I2C_AcknowledgeConfig+0x8>

00001c54 <I2C_SendData>:
    1c54:	a90e                	sh	a1,16(a0)
    1c56:	8082                	ret

00001c58 <I2C_ReceiveData>:
    1c58:	290a                	lhu	a0,16(a0)
    1c5a:	0ff57513          	andi	a0,a0,255
    1c5e:	8082                	ret

00001c60 <I2C_Send7bitAddress>:
    1c60:	0fe5f793          	andi	a5,a1,254
    1c64:	c219                	beqz	a2,1c6a <I2C_Send7bitAddress+0xa>
    1c66:	0015e793          	ori	a5,a1,1
    1c6a:	07c2                	slli	a5,a5,0x10
    1c6c:	83c1                	srli	a5,a5,0x10
    1c6e:	a91e                	sh	a5,16(a0)
    1c70:	8082                	ret

00001c72 <I2C_CheckEvent>:
    1c72:	295e                	lhu	a5,20(a0)
    1c74:	2d0a                	lhu	a0,24(a0)
    1c76:	0542                	slli	a0,a0,0x10
    1c78:	8d5d                	or	a0,a0,a5
    1c7a:	8d6d                	and	a0,a0,a1
    1c7c:	0522                	slli	a0,a0,0x8
    1c7e:	8121                	srli	a0,a0,0x8
    1c80:	8d0d                	sub	a0,a0,a1
    1c82:	00153513          	seqz	a0,a0
    1c86:	8082                	ret

00001c88 <I2C_GetFlagStatus>:
    1c88:	1161                	addi	sp,sp,-8
    1c8a:	c002                	sw	zero,0(sp)
    1c8c:	c202                	sw	zero,4(sp)
    1c8e:	01c5d793          	srli	a5,a1,0x1c
    1c92:	c22a                	sw	a0,4(sp)
    1c94:	c03e                	sw	a5,0(sp)
    1c96:	4782                	lw	a5,0(sp)
    1c98:	05a2                	slli	a1,a1,0x8
    1c9a:	81a1                	srli	a1,a1,0x8
    1c9c:	cb99                	beqz	a5,1cb2 <I2C_GetFlagStatus+0x2a>
    1c9e:	4792                	lw	a5,4(sp)
    1ca0:	07d1                	addi	a5,a5,20
    1ca2:	c23e                	sw	a5,4(sp)
    1ca4:	4792                	lw	a5,4(sp)
    1ca6:	4388                	lw	a0,0(a5)
    1ca8:	0121                	addi	sp,sp,8
    1caa:	8d6d                	and	a0,a0,a1
    1cac:	00a03533          	snez	a0,a0
    1cb0:	8082                	ret
    1cb2:	4792                	lw	a5,4(sp)
    1cb4:	81c1                	srli	a1,a1,0x10
    1cb6:	07e1                	addi	a5,a5,24
    1cb8:	b7ed                	j	1ca2 <I2C_GetFlagStatus+0x1a>

00001cba <NVIC_PriorityGroupConfig>:
    1cba:	90a1ac23          	sw	a0,-1768(gp) # 20000150 <NVIC_Priority_Group>
    1cbe:	8082                	ret

00001cc0 <NVIC_Init>:
    1cc0:	91818793          	addi	a5,gp,-1768 # 20000150 <NVIC_Priority_Group>
    1cc4:	4394                	lw	a3,0(a5)
    1cc6:	2118                	lbu	a4,0(a0)
    1cc8:	e681                	bnez	a3,1cd0 <NVIC_Init+0x10>
    1cca:	213c                	lbu	a5,2(a0)
    1ccc:	0792                	slli	a5,a5,0x4
    1cce:	a821                	j	1ce6 <NVIC_Init+0x26>
    1cd0:	4394                	lw	a3,0(a5)
    1cd2:	4605                	li	a2,1
    1cd4:	02c69f63          	bne	a3,a2,1d12 <NVIC_Init+0x52>
    1cd8:	213c                	lbu	a5,2(a0)
    1cda:	3110                	lbu	a2,1(a0)
    1cdc:	0792                	slli	a5,a5,0x4
    1cde:	00d61463          	bne	a2,a3,1ce6 <NVIC_Init+0x26>
    1ce2:	f807e793          	ori	a5,a5,-128
    1ce6:	e000e6b7          	lui	a3,0xe000e
    1cea:	0ff7f793          	andi	a5,a5,255
    1cee:	96ba                	add	a3,a3,a4
    1cf0:	40f68023          	sb	a5,1024(a3) # e000e400 <__global_pointer$+0xc000dbc8>
    1cf4:	4685                	li	a3,1
    1cf6:	00575793          	srli	a5,a4,0x5
    1cfa:	00e69733          	sll	a4,a3,a4
    1cfe:	4154                	lw	a3,4(a0)
    1d00:	c2a5                	beqz	a3,1d60 <NVIC_Init+0xa0>
    1d02:	04078793          	addi	a5,a5,64 # 4040 <_data_lma+0x18e8>
    1d06:	078a                	slli	a5,a5,0x2
    1d08:	e000e6b7          	lui	a3,0xe000e
    1d0c:	97b6                	add	a5,a5,a3
    1d0e:	c398                	sw	a4,0(a5)
    1d10:	8082                	ret
    1d12:	438c                	lw	a1,0(a5)
    1d14:	4689                	li	a3,2
    1d16:	02d59163          	bne	a1,a3,1d38 <NVIC_Init+0x78>
    1d1a:	3114                	lbu	a3,1(a0)
    1d1c:	213c                	lbu	a5,2(a0)
    1d1e:	00d66563          	bltu	a2,a3,1d28 <NVIC_Init+0x68>
    1d22:	068a                	slli	a3,a3,0x2
    1d24:	97b6                	add	a5,a5,a3
    1d26:	b75d                	j	1ccc <NVIC_Init+0xc>
    1d28:	03e68693          	addi	a3,a3,62 # e000e03e <__global_pointer$+0xc000d806>
    1d2c:	068a                	slli	a3,a3,0x2
    1d2e:	97b6                	add	a5,a5,a3
    1d30:	0ff7f793          	andi	a5,a5,255
    1d34:	0792                	slli	a5,a5,0x4
    1d36:	b775                	j	1ce2 <NVIC_Init+0x22>
    1d38:	4390                	lw	a2,0(a5)
    1d3a:	468d                	li	a3,3
    1d3c:	00d61c63          	bne	a2,a3,1d54 <NVIC_Init+0x94>
    1d40:	3114                	lbu	a3,1(a0)
    1d42:	213c                	lbu	a5,2(a0)
    1d44:	00d66463          	bltu	a2,a3,1d4c <NVIC_Init+0x8c>
    1d48:	0686                	slli	a3,a3,0x1
    1d4a:	bfe9                	j	1d24 <NVIC_Init+0x64>
    1d4c:	07c68693          	addi	a3,a3,124
    1d50:	0686                	slli	a3,a3,0x1
    1d52:	bff1                	j	1d2e <NVIC_Init+0x6e>
    1d54:	4394                	lw	a3,0(a5)
    1d56:	4791                	li	a5,4
    1d58:	f8f69ee3          	bne	a3,a5,1cf4 <NVIC_Init+0x34>
    1d5c:	311c                	lbu	a5,1(a0)
    1d5e:	b7bd                	j	1ccc <NVIC_Init+0xc>
    1d60:	06078793          	addi	a5,a5,96
    1d64:	b74d                	j	1d06 <NVIC_Init+0x46>

00001d66 <RCC_ADCCLKConfig>:
    1d66:	400216b7          	lui	a3,0x40021
    1d6a:	42dc                	lw	a5,4(a3)
    1d6c:	7741                	lui	a4,0xffff0
    1d6e:	7ff70713          	addi	a4,a4,2047 # ffff07ff <__global_pointer$+0xdffeffc7>
    1d72:	8ff9                	and	a5,a5,a4
    1d74:	8d5d                	or	a0,a0,a5
    1d76:	c2c8                	sw	a0,4(a3)
    1d78:	8082                	ret

00001d7a <RCC_GetClocksFreq>:
    1d7a:	b26fe2ef          	jal	t0,a0 <__riscv_save_0>
    1d7e:	40021737          	lui	a4,0x40021
    1d82:	435c                	lw	a5,4(a4)
    1d84:	4691                	li	a3,4
    1d86:	842a                	mv	s0,a0
    1d88:	8bb1                	andi	a5,a5,12
    1d8a:	00d78563          	beq	a5,a3,1d94 <RCC_GetClocksFreq+0x1a>
    1d8e:	46a1                	li	a3,8
    1d90:	06d78d63          	beq	a5,a3,1e0a <RCC_GetClocksFreq+0x90>
    1d94:	016e37b7          	lui	a5,0x16e3
    1d98:	60078793          	addi	a5,a5,1536 # 16e3600 <_data_lma+0x16e0ea8>
    1d9c:	c01c                	sw	a5,0(s0)
    1d9e:	400216b7          	lui	a3,0x40021
    1da2:	42dc                	lw	a5,4(a3)
    1da4:	8391                	srli	a5,a5,0x4
    1da6:	00f7f713          	andi	a4,a5,15
    1daa:	200007b7          	lui	a5,0x20000
    1dae:	02878793          	addi	a5,a5,40 # 20000028 <APBAHBPrescTable>
    1db2:	97ba                	add	a5,a5,a4
    1db4:	238c                	lbu	a1,0(a5)
    1db6:	42dc                	lw	a5,4(a3)
    1db8:	4018                	lw	a4,0(s0)
    1dba:	0ff5f593          	andi	a1,a1,255
    1dbe:	0807f793          	andi	a5,a5,128
    1dc2:	00b75533          	srl	a0,a4,a1
    1dc6:	e781                	bnez	a5,1dce <RCC_GetClocksFreq+0x54>
    1dc8:	853a                	mv	a0,a4
    1dca:	b0afe0ef          	jal	ra,d4 <__udivsi3>
    1dce:	c048                	sw	a0,4(s0)
    1dd0:	c408                	sw	a0,8(s0)
    1dd2:	c448                	sw	a0,12(s0)
    1dd4:	400217b7          	lui	a5,0x40021
    1dd8:	43dc                	lw	a5,4(a5)
    1dda:	83ad                	srli	a5,a5,0xb
    1ddc:	8bfd                	andi	a5,a5,31
    1dde:	0037d713          	srli	a4,a5,0x3
    1de2:	078a                	slli	a5,a5,0x2
    1de4:	8bf1                	andi	a5,a5,28
    1de6:	8fd9                	or	a5,a5,a4
    1de8:	0137f693          	andi	a3,a5,19
    1dec:	470d                	li	a4,3
    1dee:	00d77363          	bgeu	a4,a3,1df4 <RCC_GetClocksFreq+0x7a>
    1df2:	17d1                	addi	a5,a5,-12
    1df4:	20000737          	lui	a4,0x20000
    1df8:	01470713          	addi	a4,a4,20 # 20000014 <ADCPrescTable>
    1dfc:	97ba                	add	a5,a5,a4
    1dfe:	238c                	lbu	a1,0(a5)
    1e00:	ad4fe0ef          	jal	ra,d4 <__udivsi3>
    1e04:	c808                	sw	a0,16(s0)
    1e06:	aa4fe06f          	j	aa <__riscv_restore_0>
    1e0a:	435c                	lw	a5,4(a4)
    1e0c:	02dc77b7          	lui	a5,0x2dc7
    1e10:	c0078793          	addi	a5,a5,-1024 # 2dc6c00 <_data_lma+0x2dc44a8>
    1e14:	b761                	j	1d9c <RCC_GetClocksFreq+0x22>

00001e16 <RCC_APB2PeriphClockCmd>:
    1e16:	c599                	beqz	a1,1e24 <RCC_APB2PeriphClockCmd+0xe>
    1e18:	40021737          	lui	a4,0x40021
    1e1c:	4f1c                	lw	a5,24(a4)
    1e1e:	8d5d                	or	a0,a0,a5
    1e20:	cf08                	sw	a0,24(a4)
    1e22:	8082                	ret
    1e24:	400217b7          	lui	a5,0x40021
    1e28:	4f98                	lw	a4,24(a5)
    1e2a:	fff54513          	not	a0,a0
    1e2e:	8d79                	and	a0,a0,a4
    1e30:	cf88                	sw	a0,24(a5)
    1e32:	8082                	ret

00001e34 <RCC_APB1PeriphClockCmd>:
    1e34:	c599                	beqz	a1,1e42 <RCC_APB1PeriphClockCmd+0xe>
    1e36:	40021737          	lui	a4,0x40021
    1e3a:	4f5c                	lw	a5,28(a4)
    1e3c:	8d5d                	or	a0,a0,a5
    1e3e:	cf48                	sw	a0,28(a4)
    1e40:	8082                	ret
    1e42:	400217b7          	lui	a5,0x40021
    1e46:	4fd8                	lw	a4,28(a5)
    1e48:	fff54513          	not	a0,a0
    1e4c:	8d79                	and	a0,a0,a4
    1e4e:	cfc8                	sw	a0,28(a5)
    1e50:	8082                	ret

00001e52 <RCC_APB2PeriphResetCmd>:
    1e52:	c599                	beqz	a1,1e60 <RCC_APB2PeriphResetCmd+0xe>
    1e54:	40021737          	lui	a4,0x40021
    1e58:	475c                	lw	a5,12(a4)
    1e5a:	8d5d                	or	a0,a0,a5
    1e5c:	c748                	sw	a0,12(a4)
    1e5e:	8082                	ret
    1e60:	400217b7          	lui	a5,0x40021
    1e64:	47d8                	lw	a4,12(a5)
    1e66:	fff54513          	not	a0,a0
    1e6a:	8d79                	and	a0,a0,a4
    1e6c:	c7c8                	sw	a0,12(a5)
    1e6e:	8082                	ret

00001e70 <TIM_TimeBaseInit>:
    1e70:	211e                	lhu	a5,0(a0)
    1e72:	40013737          	lui	a4,0x40013
    1e76:	c0070713          	addi	a4,a4,-1024 # 40012c00 <__global_pointer$+0x200123c8>
    1e7a:	07c2                	slli	a5,a5,0x10
    1e7c:	83c1                	srli	a5,a5,0x10
    1e7e:	00e50663          	beq	a0,a4,1e8a <TIM_TimeBaseInit+0x1a>
    1e82:	40000737          	lui	a4,0x40000
    1e86:	00e51663          	bne	a0,a4,1e92 <TIM_TimeBaseInit+0x22>
    1e8a:	21ba                	lhu	a4,2(a1)
    1e8c:	f8f7f793          	andi	a5,a5,-113
    1e90:	8fd9                	or	a5,a5,a4
    1e92:	21fa                	lhu	a4,6(a1)
    1e94:	cff7f793          	andi	a5,a5,-769
    1e98:	07c2                	slli	a5,a5,0x10
    1e9a:	83c1                	srli	a5,a5,0x10
    1e9c:	8fd9                	or	a5,a5,a4
    1e9e:	a11e                	sh	a5,0(a0)
    1ea0:	21de                	lhu	a5,4(a1)
    1ea2:	b55e                	sh	a5,44(a0)
    1ea4:	219e                	lhu	a5,0(a1)
    1ea6:	b51e                	sh	a5,40(a0)
    1ea8:	400137b7          	lui	a5,0x40013
    1eac:	c0078793          	addi	a5,a5,-1024 # 40012c00 <__global_pointer$+0x200123c8>
    1eb0:	00f51463          	bne	a0,a5,1eb8 <TIM_TimeBaseInit+0x48>
    1eb4:	259c                	lbu	a5,8(a1)
    1eb6:	b91e                	sh	a5,48(a0)
    1eb8:	4785                	li	a5,1
    1eba:	a95e                	sh	a5,20(a0)
    1ebc:	8082                	ret

00001ebe <TIM_OC1Init>:
    1ebe:	311e                	lhu	a5,32(a0)
    1ec0:	2192                	lhu	a2,0(a1)
    1ec2:	0025d303          	lhu	t1,2(a1)
    1ec6:	07c2                	slli	a5,a5,0x10
    1ec8:	83c1                	srli	a5,a5,0x10
    1eca:	9bf9                	andi	a5,a5,-2
    1ecc:	07c2                	slli	a5,a5,0x10
    1ece:	83c1                	srli	a5,a5,0x10
    1ed0:	b11e                	sh	a5,32(a0)
    1ed2:	311e                	lhu	a5,32(a0)
    1ed4:	2156                	lhu	a3,4(a0)
    1ed6:	2d1a                	lhu	a4,24(a0)
    1ed8:	07c2                	slli	a5,a5,0x10
    1eda:	83c1                	srli	a5,a5,0x10
    1edc:	0742                	slli	a4,a4,0x10
    1ede:	8341                	srli	a4,a4,0x10
    1ee0:	f8c77713          	andi	a4,a4,-116
    1ee4:	8f51                	or	a4,a4,a2
    1ee6:	2592                	lhu	a2,8(a1)
    1ee8:	9bf5                	andi	a5,a5,-3
    1eea:	06c2                	slli	a3,a3,0x10
    1eec:	00666633          	or	a2,a2,t1
    1ef0:	8fd1                	or	a5,a5,a2
    1ef2:	40013637          	lui	a2,0x40013
    1ef6:	c0060613          	addi	a2,a2,-1024 # 40012c00 <__global_pointer$+0x200123c8>
    1efa:	82c1                	srli	a3,a3,0x10
    1efc:	02c51063          	bne	a0,a2,1f1c <TIM_OC1Init+0x5e>
    1f00:	25b2                	lhu	a2,10(a1)
    1f02:	9bdd                	andi	a5,a5,-9
    1f04:	00e5d303          	lhu	t1,14(a1)
    1f08:	8fd1                	or	a5,a5,a2
    1f0a:	21d2                	lhu	a2,4(a1)
    1f0c:	9bed                	andi	a5,a5,-5
    1f0e:	cff6f693          	andi	a3,a3,-769
    1f12:	8fd1                	or	a5,a5,a2
    1f14:	25d2                	lhu	a2,12(a1)
    1f16:	00666633          	or	a2,a2,t1
    1f1a:	8ed1                	or	a3,a3,a2
    1f1c:	a156                	sh	a3,4(a0)
    1f1e:	ad1a                	sh	a4,24(a0)
    1f20:	21fa                	lhu	a4,6(a1)
    1f22:	d958                	sw	a4,52(a0)
    1f24:	b11e                	sh	a5,32(a0)
    1f26:	8082                	ret

00001f28 <TIM_OC2Init>:
    1f28:	311e                	lhu	a5,32(a0)
    1f2a:	7765                	lui	a4,0xffff9
    1f2c:	cff70713          	addi	a4,a4,-769 # ffff8cff <__global_pointer$+0xdfff84c7>
    1f30:	07c2                	slli	a5,a5,0x10
    1f32:	83c1                	srli	a5,a5,0x10
    1f34:	9bbd                	andi	a5,a5,-17
    1f36:	07c2                	slli	a5,a5,0x10
    1f38:	83c1                	srli	a5,a5,0x10
    1f3a:	b11e                	sh	a5,32(a0)
    1f3c:	311e                	lhu	a5,32(a0)
    1f3e:	2156                	lhu	a3,4(a0)
    1f40:	0085d303          	lhu	t1,8(a1)
    1f44:	07c2                	slli	a5,a5,0x10
    1f46:	01069613          	slli	a2,a3,0x10
    1f4a:	2d16                	lhu	a3,24(a0)
    1f4c:	83c1                	srli	a5,a5,0x10
    1f4e:	fdf7f793          	andi	a5,a5,-33
    1f52:	8f75                	and	a4,a4,a3
    1f54:	2196                	lhu	a3,0(a1)
    1f56:	8241                	srli	a2,a2,0x10
    1f58:	06a2                	slli	a3,a3,0x8
    1f5a:	8f55                	or	a4,a4,a3
    1f5c:	21b6                	lhu	a3,2(a1)
    1f5e:	0742                	slli	a4,a4,0x10
    1f60:	8341                	srli	a4,a4,0x10
    1f62:	0066e6b3          	or	a3,a3,t1
    1f66:	0692                	slli	a3,a3,0x4
    1f68:	8fd5                	or	a5,a5,a3
    1f6a:	400136b7          	lui	a3,0x40013
    1f6e:	07c2                	slli	a5,a5,0x10
    1f70:	c0068693          	addi	a3,a3,-1024 # 40012c00 <__global_pointer$+0x200123c8>
    1f74:	83c1                	srli	a5,a5,0x10
    1f76:	02d51e63          	bne	a0,a3,1fb2 <TIM_OC2Init+0x8a>
    1f7a:	25b6                	lhu	a3,10(a1)
    1f7c:	f7f7f793          	andi	a5,a5,-129
    1f80:	00c5d303          	lhu	t1,12(a1)
    1f84:	0692                	slli	a3,a3,0x4
    1f86:	8fd5                	or	a5,a5,a3
    1f88:	21d6                	lhu	a3,4(a1)
    1f8a:	07c2                	slli	a5,a5,0x10
    1f8c:	83c1                	srli	a5,a5,0x10
    1f8e:	0692                	slli	a3,a3,0x4
    1f90:	fbf7f793          	andi	a5,a5,-65
    1f94:	8fd5                	or	a5,a5,a3
    1f96:	76fd                	lui	a3,0xfffff
    1f98:	3ff68693          	addi	a3,a3,1023 # fffff3ff <__global_pointer$+0xdfffebc7>
    1f9c:	8ef1                	and	a3,a3,a2
    1f9e:	25f2                	lhu	a2,14(a1)
    1fa0:	07c2                	slli	a5,a5,0x10
    1fa2:	83c1                	srli	a5,a5,0x10
    1fa4:	00666633          	or	a2,a2,t1
    1fa8:	060a                	slli	a2,a2,0x2
    1faa:	8ed1                	or	a3,a3,a2
    1fac:	01069613          	slli	a2,a3,0x10
    1fb0:	8241                	srli	a2,a2,0x10
    1fb2:	a152                	sh	a2,4(a0)
    1fb4:	ad1a                	sh	a4,24(a0)
    1fb6:	21fa                	lhu	a4,6(a1)
    1fb8:	dd18                	sw	a4,56(a0)
    1fba:	b11e                	sh	a5,32(a0)
    1fbc:	8082                	ret

00001fbe <TIM_OC4Init>:
    1fbe:	311a                	lhu	a4,32(a0)
    1fc0:	77fd                	lui	a5,0xfffff
    1fc2:	17fd                	addi	a5,a5,-1
    1fc4:	8ff9                	and	a5,a5,a4
    1fc6:	b11e                	sh	a5,32(a0)
    1fc8:	02055303          	lhu	t1,32(a0)
    1fcc:	215a                	lhu	a4,4(a0)
    1fce:	2d5e                	lhu	a5,28(a0)
    1fd0:	76e5                	lui	a3,0xffff9
    1fd2:	cff68693          	addi	a3,a3,-769 # ffff8cff <__global_pointer$+0xdfff84c7>
    1fd6:	8efd                	and	a3,a3,a5
    1fd8:	219e                	lhu	a5,0(a1)
    1fda:	01071613          	slli	a2,a4,0x10
    1fde:	21ba                	lhu	a4,2(a1)
    1fe0:	07a2                	slli	a5,a5,0x8
    1fe2:	8edd                	or	a3,a3,a5
    1fe4:	77f9                	lui	a5,0xffffe
    1fe6:	17fd                	addi	a5,a5,-1
    1fe8:	0067f7b3          	and	a5,a5,t1
    1fec:	0085d303          	lhu	t1,8(a1)
    1ff0:	06c2                	slli	a3,a3,0x10
    1ff2:	8241                	srli	a2,a2,0x10
    1ff4:	00676733          	or	a4,a4,t1
    1ff8:	0732                	slli	a4,a4,0xc
    1ffa:	8fd9                	or	a5,a5,a4
    1ffc:	40013737          	lui	a4,0x40013
    2000:	07c2                	slli	a5,a5,0x10
    2002:	c0070713          	addi	a4,a4,-1024 # 40012c00 <__global_pointer$+0x200123c8>
    2006:	82c1                	srli	a3,a3,0x10
    2008:	83c1                	srli	a5,a5,0x10
    200a:	00e51b63          	bne	a0,a4,2020 <TIM_OC4Init+0x62>
    200e:	7771                	lui	a4,0xffffc
    2010:	177d                	addi	a4,a4,-1
    2012:	8f71                	and	a4,a4,a2
    2014:	25d2                	lhu	a2,12(a1)
    2016:	061a                	slli	a2,a2,0x6
    2018:	8f51                	or	a4,a4,a2
    201a:	01071613          	slli	a2,a4,0x10
    201e:	8241                	srli	a2,a2,0x10
    2020:	21fa                	lhu	a4,6(a1)
    2022:	a152                	sh	a2,4(a0)
    2024:	ad56                	sh	a3,28(a0)
    2026:	c138                	sw	a4,64(a0)
    2028:	b11e                	sh	a5,32(a0)
    202a:	8082                	ret

0000202c <TIM_Cmd>:
    202c:	211e                	lhu	a5,0(a0)
    202e:	c589                	beqz	a1,2038 <TIM_Cmd+0xc>
    2030:	0017e793          	ori	a5,a5,1
    2034:	a11e                	sh	a5,0(a0)
    2036:	8082                	ret
    2038:	07c2                	slli	a5,a5,0x10
    203a:	83c1                	srli	a5,a5,0x10
    203c:	9bf9                	andi	a5,a5,-2
    203e:	07c2                	slli	a5,a5,0x10
    2040:	83c1                	srli	a5,a5,0x10
    2042:	bfcd                	j	2034 <TIM_Cmd+0x8>

00002044 <TIM_CtrlPWMOutputs>:
    2044:	04455783          	lhu	a5,68(a0)
    2048:	c591                	beqz	a1,2054 <TIM_CtrlPWMOutputs+0x10>
    204a:	6721                	lui	a4,0x8
    204c:	8fd9                	or	a5,a5,a4
    204e:	04f51223          	sh	a5,68(a0)
    2052:	8082                	ret
    2054:	07c6                	slli	a5,a5,0x11
    2056:	83c5                	srli	a5,a5,0x11
    2058:	bfdd                	j	204e <TIM_CtrlPWMOutputs+0xa>

0000205a <TIM_ARRPreloadConfig>:
    205a:	211e                	lhu	a5,0(a0)
    205c:	c589                	beqz	a1,2066 <TIM_ARRPreloadConfig+0xc>
    205e:	0807e793          	ori	a5,a5,128
    2062:	a11e                	sh	a5,0(a0)
    2064:	8082                	ret
    2066:	07c2                	slli	a5,a5,0x10
    2068:	83c1                	srli	a5,a5,0x10
    206a:	f7f7f793          	andi	a5,a5,-129
    206e:	07c2                	slli	a5,a5,0x10
    2070:	83c1                	srli	a5,a5,0x10
    2072:	bfc5                	j	2062 <TIM_ARRPreloadConfig+0x8>

00002074 <TIM_OC1PreloadConfig>:
    2074:	2d1e                	lhu	a5,24(a0)
    2076:	07c2                	slli	a5,a5,0x10
    2078:	83c1                	srli	a5,a5,0x10
    207a:	9bdd                	andi	a5,a5,-9
    207c:	8ddd                	or	a1,a1,a5
    207e:	ad0e                	sh	a1,24(a0)
    2080:	8082                	ret

00002082 <TIM_OC2PreloadConfig>:
    2082:	2d1a                	lhu	a4,24(a0)
    2084:	77fd                	lui	a5,0xfffff
    2086:	7ff78793          	addi	a5,a5,2047 # fffff7ff <__global_pointer$+0xdfffefc7>
    208a:	8ff9                	and	a5,a5,a4
    208c:	05a2                	slli	a1,a1,0x8
    208e:	8fcd                	or	a5,a5,a1
    2090:	07c2                	slli	a5,a5,0x10
    2092:	83c1                	srli	a5,a5,0x10
    2094:	ad1e                	sh	a5,24(a0)
    2096:	8082                	ret

00002098 <TIM_OC4PreloadConfig>:
    2098:	2d5a                	lhu	a4,28(a0)
    209a:	77fd                	lui	a5,0xfffff
    209c:	7ff78793          	addi	a5,a5,2047 # fffff7ff <__global_pointer$+0xdfffefc7>
    20a0:	8ff9                	and	a5,a5,a4
    20a2:	05a2                	slli	a1,a1,0x8
    20a4:	8fcd                	or	a5,a5,a1
    20a6:	07c2                	slli	a5,a5,0x10
    20a8:	83c1                	srli	a5,a5,0x10
    20aa:	ad5e                	sh	a5,28(a0)
    20ac:	8082                	ret

000020ae <TIM_SetCompare1>:
    20ae:	d94c                	sw	a1,52(a0)
    20b0:	8082                	ret

000020b2 <TIM_SetCompare2>:
    20b2:	dd0c                	sw	a1,56(a0)
    20b4:	8082                	ret

000020b6 <TIM_SetCompare4>:
    20b6:	c12c                	sw	a1,64(a0)
    20b8:	8082                	ret

000020ba <USART_Init>:
    20ba:	fe7fd2ef          	jal	t0,a0 <__riscv_save_0>
    20be:	2916                	lhu	a3,16(a0)
    20c0:	77f5                	lui	a5,0xffffd
    20c2:	17fd                	addi	a5,a5,-1
    20c4:	8ff5                	and	a5,a5,a3
    20c6:	21f6                	lhu	a3,6(a1)
    20c8:	25da                	lhu	a4,12(a1)
    20ca:	1121                	addi	sp,sp,-24
    20cc:	8fd5                	or	a5,a5,a3
    20ce:	a91e                	sh	a5,16(a0)
    20d0:	2556                	lhu	a3,12(a0)
    20d2:	77fd                	lui	a5,0xfffff
    20d4:	9f378793          	addi	a5,a5,-1549 # ffffe9f3 <__global_pointer$+0xdfffe1bb>
    20d8:	8ff5                	and	a5,a5,a3
    20da:	21d6                	lhu	a3,4(a1)
    20dc:	842a                	mv	s0,a0
    20de:	c02e                	sw	a1,0(sp)
    20e0:	8fd5                	or	a5,a5,a3
    20e2:	2596                	lhu	a3,8(a1)
    20e4:	8fd5                	or	a5,a5,a3
    20e6:	25b6                	lhu	a3,10(a1)
    20e8:	8fd5                	or	a5,a5,a3
    20ea:	a55e                	sh	a5,12(a0)
    20ec:	295e                	lhu	a5,20(a0)
    20ee:	07c2                	slli	a5,a5,0x10
    20f0:	83c1                	srli	a5,a5,0x10
    20f2:	cff7f793          	andi	a5,a5,-769
    20f6:	8f5d                	or	a4,a4,a5
    20f8:	a95a                	sh	a4,20(a0)
    20fa:	0048                	addi	a0,sp,4
    20fc:	c7fff0ef          	jal	ra,1d7a <RCC_GetClocksFreq>
    2100:	400147b7          	lui	a5,0x40014
    2104:	80078793          	addi	a5,a5,-2048 # 40013800 <__global_pointer$+0x20012fc8>
    2108:	4582                	lw	a1,0(sp)
    210a:	06f41263          	bne	s0,a5,216e <USART_Init+0xb4>
    210e:	47c2                	lw	a5,16(sp)
    2110:	245a                	lhu	a4,12(s0)
    2112:	00179513          	slli	a0,a5,0x1
    2116:	953e                	add	a0,a0,a5
    2118:	0742                	slli	a4,a4,0x10
    211a:	050e                	slli	a0,a0,0x3
    211c:	8741                	srai	a4,a4,0x10
    211e:	953e                	add	a0,a0,a5
    2120:	418c                	lw	a1,0(a1)
    2122:	04075863          	bgez	a4,2172 <USART_Init+0xb8>
    2126:	0586                	slli	a1,a1,0x1
    2128:	fadfd0ef          	jal	ra,d4 <__udivsi3>
    212c:	06400593          	li	a1,100
    2130:	c02a                	sw	a0,0(sp)
    2132:	fa3fd0ef          	jal	ra,d4 <__udivsi3>
    2136:	4782                	lw	a5,0(sp)
    2138:	00451493          	slli	s1,a0,0x4
    213c:	06400593          	li	a1,100
    2140:	853e                	mv	a0,a5
    2142:	fbffd0ef          	jal	ra,100 <__umodsi3>
    2146:	245e                	lhu	a5,12(s0)
    2148:	07c2                	slli	a5,a5,0x10
    214a:	87c1                	srai	a5,a5,0x10
    214c:	0207d563          	bgez	a5,2176 <USART_Init+0xbc>
    2150:	050e                	slli	a0,a0,0x3
    2152:	06400593          	li	a1,100
    2156:	03250513          	addi	a0,a0,50
    215a:	f7bfd0ef          	jal	ra,d4 <__udivsi3>
    215e:	891d                	andi	a0,a0,7
    2160:	8cc9                	or	s1,s1,a0
    2162:	04c2                	slli	s1,s1,0x10
    2164:	80c1                	srli	s1,s1,0x10
    2166:	a406                	sh	s1,8(s0)
    2168:	0161                	addi	sp,sp,24
    216a:	f41fd06f          	j	aa <__riscv_restore_0>
    216e:	47b2                	lw	a5,12(sp)
    2170:	b745                	j	2110 <USART_Init+0x56>
    2172:	058a                	slli	a1,a1,0x2
    2174:	bf55                	j	2128 <USART_Init+0x6e>
    2176:	0512                	slli	a0,a0,0x4
    2178:	06400593          	li	a1,100
    217c:	03250513          	addi	a0,a0,50
    2180:	f55fd0ef          	jal	ra,d4 <__udivsi3>
    2184:	893d                	andi	a0,a0,15
    2186:	bfe9                	j	2160 <USART_Init+0xa6>

00002188 <USART_Cmd>:
    2188:	c591                	beqz	a1,2194 <USART_Cmd+0xc>
    218a:	255e                	lhu	a5,12(a0)
    218c:	6709                	lui	a4,0x2
    218e:	8fd9                	or	a5,a5,a4
    2190:	a55e                	sh	a5,12(a0)
    2192:	8082                	ret
    2194:	255a                	lhu	a4,12(a0)
    2196:	77f9                	lui	a5,0xffffe
    2198:	17fd                	addi	a5,a5,-1
    219a:	8ff9                	and	a5,a5,a4
    219c:	bfd5                	j	2190 <USART_Cmd+0x8>

0000219e <USART_ITConfig>:
    219e:	0ff5f713          	andi	a4,a1,255
    21a2:	4785                	li	a5,1
    21a4:	8315                	srli	a4,a4,0x5
    21a6:	00b795b3          	sll	a1,a5,a1
    21aa:	00f71963          	bne	a4,a5,21bc <USART_ITConfig+0x1e>
    21ae:	00c50793          	addi	a5,a0,12
    21b2:	4398                	lw	a4,0(a5)
    21b4:	ce01                	beqz	a2,21cc <USART_ITConfig+0x2e>
    21b6:	8dd9                	or	a1,a1,a4
    21b8:	c38c                	sw	a1,0(a5)
    21ba:	8082                	ret
    21bc:	4689                	li	a3,2
    21be:	01450793          	addi	a5,a0,20
    21c2:	fed718e3          	bne	a4,a3,21b2 <USART_ITConfig+0x14>
    21c6:	01050793          	addi	a5,a0,16
    21ca:	b7e5                	j	21b2 <USART_ITConfig+0x14>
    21cc:	fff5c593          	not	a1,a1
    21d0:	8df9                	and	a1,a1,a4
    21d2:	b7dd                	j	21b8 <USART_ITConfig+0x1a>

000021d4 <USART_SendData>:
    21d4:	1ff5f593          	andi	a1,a1,511
    21d8:	a14e                	sh	a1,4(a0)
    21da:	8082                	ret

000021dc <USART_ReceiveData>:
    21dc:	214a                	lhu	a0,4(a0)
    21de:	1ff57513          	andi	a0,a0,511
    21e2:	8082                	ret

000021e4 <USART_GetFlagStatus>:
    21e4:	210a                	lhu	a0,0(a0)
    21e6:	8d6d                	and	a0,a0,a1
    21e8:	00a03533          	snez	a0,a0
    21ec:	8082                	ret

000021ee <USART_GetITStatus>:
    21ee:	0ff5f713          	andi	a4,a1,255
    21f2:	4685                	li	a3,1
    21f4:	8315                	srli	a4,a4,0x5
    21f6:	00b697b3          	sll	a5,a3,a1
    21fa:	02d71163          	bne	a4,a3,221c <USART_GetITStatus+0x2e>
    21fe:	255a                	lhu	a4,12(a0)
    2200:	8ff9                	and	a5,a5,a4
    2202:	211a                	lhu	a4,0(a0)
    2204:	4501                	li	a0,0
    2206:	0742                	slli	a4,a4,0x10
    2208:	8341                	srli	a4,a4,0x10
    220a:	cb81                	beqz	a5,221a <USART_GetITStatus+0x2c>
    220c:	4505                	li	a0,1
    220e:	81a1                	srli	a1,a1,0x8
    2210:	00b515b3          	sll	a1,a0,a1
    2214:	8f6d                	and	a4,a4,a1
    2216:	00e03533          	snez	a0,a4
    221a:	8082                	ret
    221c:	4689                	li	a3,2
    221e:	00d71463          	bne	a4,a3,2226 <USART_GetITStatus+0x38>
    2222:	291a                	lhu	a4,16(a0)
    2224:	bff1                	j	2200 <USART_GetITStatus+0x12>
    2226:	295a                	lhu	a4,20(a0)
    2228:	bfe1                	j	2200 <USART_GetITStatus+0x12>

0000222a <Delay_Init>:
    222a:	e77fd2ef          	jal	t0,a0 <__riscv_save_0>
    222e:	200007b7          	lui	a5,0x20000
    2232:	0107a503          	lw	a0,16(a5) # 20000010 <SystemCoreClock>
    2236:	007a15b7          	lui	a1,0x7a1
    223a:	20058593          	addi	a1,a1,512 # 7a1200 <_data_lma+0x79eaa8>
    223e:	e97fd0ef          	jal	ra,d4 <__udivsi3>
    2242:	0ff57513          	andi	a0,a0,255
    2246:	90a18f23          	sb	a0,-1762(gp) # 20000156 <p_us>
    224a:	00551793          	slli	a5,a0,0x5
    224e:	8f89                	sub	a5,a5,a0
    2250:	078a                	slli	a5,a5,0x2
    2252:	953e                	add	a0,a0,a5
    2254:	050e                	slli	a0,a0,0x3
    2256:	90a19e23          	sh	a0,-1764(gp) # 20000154 <p_ms>
    225a:	e51fd06f          	j	aa <__riscv_restore_0>

0000225e <Delay_Ms>:
    225e:	e43fd2ef          	jal	t0,a0 <__riscv_save_0>
    2262:	e000f437          	lui	s0,0xe000f
    2266:	405c                	lw	a5,4(s0)
    2268:	85aa                	mv	a1,a0
    226a:	9bf9                	andi	a5,a5,-2
    226c:	c05c                	sw	a5,4(s0)
    226e:	91c1d503          	lhu	a0,-1764(gp) # 20000154 <p_ms>
    2272:	e43fd0ef          	jal	ra,b4 <__mulsi3>
    2276:	c808                	sw	a0,16(s0)
    2278:	00042423          	sw	zero,8(s0) # e000f008 <__global_pointer$+0xc000e7d0>
    227c:	401c                	lw	a5,0(s0)
    227e:	0017e793          	ori	a5,a5,1
    2282:	c01c                	sw	a5,0(s0)
    2284:	e000f7b7          	lui	a5,0xe000f
    2288:	43d8                	lw	a4,4(a5)
    228a:	8b05                	andi	a4,a4,1
    228c:	df75                	beqz	a4,2288 <Delay_Ms+0x2a>
    228e:	4398                	lw	a4,0(a5)
    2290:	9b79                	andi	a4,a4,-2
    2292:	c398                	sw	a4,0(a5)
    2294:	e17fd06f          	j	aa <__riscv_restore_0>

00002298 <strlen>:
    2298:	87aa                	mv	a5,a0
    229a:	0785                	addi	a5,a5,1
    229c:	fff7c703          	lbu	a4,-1(a5) # e000efff <__global_pointer$+0xc000e7c7>
    22a0:	ff6d                	bnez	a4,229a <strlen+0x2>
    22a2:	40a78533          	sub	a0,a5,a0
    22a6:	157d                	addi	a0,a0,-1
    22a8:	8082                	ret
	...

000022ac <AARR_GlcdFont_U8>:
    22ac:	0000 0000 0000 1cff 3e3e 143e ff14 1c08     ........>>>.....
    22bc:	3e1c 7f7f 60ff 7000 7c00 ff00 2a24 2a7f     .>...`.p.|..$*.*
    22cc:	0012 23ff 0813 6264 ff00 1408 2214 7f41     ...#..db....."A.
    22dc:	00ff 0305 0000 ff00 1c00 4122 0000 00ff     .........."A....
    22ec:	2241 001c ff00 0814 083e 0014 5cff 0262     A"......>....\b.
    22fc:	5c62 ff00 3050 0000 0000 08ff 0808 0808     b\..P0..........
    230c:	ff00 6000 0060 0000 20ff 0810 0204 ff00     ...``.... ......
    231c:	513e 4549 003e 40ff 7f42 4040 ff00 6142     >QIE>..@B.@@..Ba
    232c:	4951 0046 21ff 4541 314b ff00 1418 7f12     QIF..!AEK1......
    233c:	0010 27ff 4545 3945 ff00 4a3c 4949 0030     ...'EEE9..<JII0.
    234c:	01ff 0971 0305 ff00 4936 4949 0036 06ff     ..q.....6III6...
    235c:	4949 1e29 ff00 3600 0036 0000 7eff 4979     II)....66....~yI
    236c:	7e79 ff00 1408 4122 0000 14ff 1414 1414     y~...."A........
    237c:	ff00 4100 1422 0008 78ff 4979 7e79 ff00     ...A"....xyIy~..
    238c:	413e 555d 001e 7eff 1111 7e11 ff00 497f     >A]U...~...~...I
    239c:	4949 0036 3eff 4141 2241 ff00 417f 2241     II6..>AAA"...AA"
    23ac:	001c 7fff 4949 4149 ff00 097f 0909 0001     ....IIIA........
    23bc:	3eff 4941 7a49 ff00 087f 0808 007f 00ff     .>AIIz..........
    23cc:	7f41 0041 ff00 4020 3f41 0001 7fff 1408     A.A... @A?......
    23dc:	4122 ff00 407f 4040 0040 7fff 0c02 7f02     "A...@@@@.......
    23ec:	ff00 047f 1008 007f 3eff 4141 3e41 ff00     .........>AAA>..
    23fc:	097f 0909 0006 3eff 5141 5e21 ff00 097f     .......>AQ!^....
    240c:	2919 0046 26ff 4949 3249 ff00 0101 017f     .)F..&III2......
    241c:	0001 3fff 4040 3f40 ff00 201f 2040 001f     ...?@@@?... @ ..
    242c:	3fff 3840 3f40 ff00 1463 1408 0063 07ff     .?@8@?..c...c...
    243c:	7008 0708 ff00 5161 4549 0043 00ff 417f     .p....aQIEC....A
    244c:	0041 ff00 0402 1008 0020 00ff 4141 007f     A....... ...AA..
    245c:	ff00 0204 0201 0004 40ff 4040 4040 ff00     .........@@@@@..
    246c:	0000 0503 0000 20ff 5454 7854 ff00 447f     ....... TTTx...D
    247c:	4444 0038 38ff 4444 4444 ff00 4438 4444     DD8..8DDDD..8DDD
    248c:	007f 38ff 5454 1854 ff00 0404 057e 0005     ...8TTT.....~...
    249c:	08ff 5454 3c54 ff00 087f 0404 0078 00ff     ..TTT<......x...
    24ac:	7d44 0040 ff00 4020 3d44 0000 7fff 2810     D}@... @D=.....(
    24bc:	0044 ff00 7f41 0040 0000 7cff 7c04 7804     D...A.@....|.|.x
    24cc:	ff00 087c 0404 0078 38ff 4444 3844 ff00     ..|...x..8DDD8..
    24dc:	147c 1414 0008 08ff 1414 7c14 ff00 087c     |..........|..|.
    24ec:	0404 0000 48ff 5454 2454 ff00 0404 443f     .....HTTT$....?D
    24fc:	0044 3cff 4040 7c20 ff00 201c 2040 001c     D..<@@ |... @ ..
    250c:	3cff 3040 3c40 ff00 2844 2810 0044 0cff     .<@0@<..D(.(D...
    251c:	5050 3c50 ff00 6444 4c54 0044 08ff 4136     PPP<..DdTLD...6A
    252c:	0041 ff00 0000 0077 0000 00ff 4141 0836     A.....w.....AA6.
    253c:	ff00 0808 1c2a 0008 08ff 2a1c 0808 ff00     ....*......*....
    254c:	ffff ffff 00ff 00ff 495b 464e 5d4f 003a     ........[INFO]:.
    255c:	455b 5252 524f 3a5d 0000 0000 415b 454c     [ERROR]:....[ALE
    256c:	5452 3a5d 0000 0000 0a0d 0a0d 0000 0000     RT]:............
    257c:	4f50 4557 2052 5055 4220 4545 0d50 000a     POWER UP BEEP...
    258c:	4843 3233 3056 3330 4420 5645 4b20 5449     CH32V003 DEV KIT
    259c:	3120 302e 0a0d 0000 4544 4556 4f4c 4550      1.0....DEVELOPE
    25ac:	2044 5942 203a 4143 5550 2046 4d45 4542     D BY: CAPUF EMBE
    25bc:	4444 4445 0a0d 0000 4155 5452 203a 3131     DDED....UART: 11
    25cc:	3235 3030 312d 6e2d 0a0d 0000 4c4f 4445     5200-1-n....OLED
    25dc:	4320 4e4f 4946 2047 4f44 454e 0a0d 0000      CONFIG DONE....
    25ec:	4441 2043 4f43 464e 4749 4420 4e4f 0d45     ADC CONFIG DONE.
    25fc:	000a 0000 4752 2042 454c 2044 4f43 464e     ....RGB LED CONF
    260c:	4749 4420 4e4f 0d45 000a 0000 5953 5453     IG DONE.....SYST
    261c:	4d45 4320 4e4f 4946 2047 4f43 504d 454c     EM CONFIG COMPLE
    262c:	4554 0a0d 0000 0000 2020 4843 3233 3056     TE......  CH32V0
    263c:	3330 4420 5645 4b20 5449 0000 2020 2020     03 DEV KIT..    
    264c:	4544 4556 4f4c 4550 2044 5942 0000 0000     DEVELOPED BY....
    265c:	2020 4320 5041 4655 4520 424d 4445 4544        CAPUF EMBEDDE
    266c:	0044 0000 2020 2020 5757 2e57 4143 5550     D...    WWW.CAPU
    267c:	2e46 4e49 0000 0000 4752 2042 454c 2044     F.IN....RGB LED 
    268c:	4554 5453 4320 4c4f 524f 0a0d 0000 0000     TEST COLOR......
    269c:	4e45 4554 4952 474e 5320 5055 5245 4f4c     ENTERING SUPERLO
    26ac:	504f 0a0d 0000 0000 4843 3233 3056 3330     OP......CH32V003
    26bc:	4420 5645 4b20 5449 0000 0000 454d 5341      DEV KIT....MEAS
    26cc:	5255 2045 2654 0d48 000a 0000 5548 494d     URE T&H.....HUMI
    26dc:	4944 5954 203a 0000 002e 0000 2520 4852     DITY: ...... %RH
    26ec:	0a0d 0000 2520 4852 2020 0020 4554 504d     .... %RH   .TEMP
    26fc:	5245 5441 5255 3a45 0020 0000 4420 6765     ERATURE: ... Deg
    270c:	4320 0a0d 0000 0000 0043 0000 4f50 2054      C......C...POT 
    271c:	4f56 544c 4741 3a45 0020 0000 566d 0000     VOLTAGE: ...mV..
    272c:	566d 0a0d 0000 0000 454c 2044 4c42 4e49     mV......LED BLIN
    273c:	0d4b 000a 4155 5452 4420 5441 2041 4552     K...UART DATA RE
    274c:	4543 5649 4445 3a20 0d29 000a               CEIVED :)...
